(dp0
F1.125
S'0.130294517137'
p1
sF1.0
S'0.158655253931'
p2
sF2.0
S'0.0227501319482'
p3
sF3.0
S'0.00134989803163'
p4
sF4.0
S'3.16712418331e-05'
p5
sF3.912
S'4.57674559383e-05'
p6
sF3.781
S'7.80998371043e-05'
p7
sF1.033
S'0.150801949329'
p8
sF4.903
S'4.7191992174e-07'
p9
sF1.057
S'0.145255793716'
p10
sF1.433
S'0.0759289186615'
p11
sF1.148
S'0.125484281916'
p12
sF2.973
S'0.00147452225681'
p13
sF1.743
S'0.0406668074092'
p14
sF1.236
S'0.108229281833'
p15
sF3.678
S'0.00011753497994'
p16
sF3.908
S'4.6531653169e-05'
p17
sF2.017
S'0.0218477566569'
p18
sF2.988
S'0.00140404777201'
p19
sF3.883
S'5.15877840613e-05'
p20
sF2.507
S'0.00608803558428'
p21
sF1.124
S'0.130506512973'
p22
sF1.67
S'0.0474596818029'
p23
sF2.583
S'0.00489726614944'
p24
sF2.194
S'0.0141177047762'
p25
sF1.478
S'0.0697038891214'
p26
sF2.53
S'0.00570312633295'
p27
sF2.132
S'0.016503423279'
p28
sF1.012
S'0.155769026712'
p29
sF3.316
S'0.000456579144057'
p30
sF1.545
S'0.0611731316835'
p31
sF4.543
S'2.77296257611e-06'
p32
sF2.201
S'0.01386801192'
p33
sF2.187
S'0.014371261998'
p34
sF3.078
S'0.0010419745754'
p35
sF3.588
S'0.000166612145058'
p36
sF2.378
S'0.00870341295952'
p37
sF4.363
S'6.41454717476e-06'
p38
sF2.657
S'0.00394197215139'
p39
sF1.675
S'0.0469671158307'
p40
sF2.998
S'0.00135878836687'
p41
sF4.971
S'3.33042247403e-07'
p42
sF3.13
S'0.000874031515632'
p43
sF1.861
S'0.0313720883469'
p44
sF4.583
S'2.29176020121e-06'
p45
sF4.36
S'6.50312220099e-06'
p46
sF4.457
S'4.15573015872e-06'
p47
sF3.051
S'0.00114040287354'
p48
sF1.897
S'0.0289139690465'
p49
sF1.668
S'0.0476578633914'
p50
sF2.643
S'0.00410875176437'
p51
sF4.379
S'5.96125660063e-06'
p52
sF1.437
S'0.0753589967734'
p53
sF4.068
S'2.37091906911e-05'
p54
sF3.457
S'0.000273112424534'
p55
sF4.978
S'3.21223281407e-07'
p56
sF3.491
S'0.000240608126669'
p57
sF3.162
S'0.000783447821711'
p58
sF4.732
S'1.11159206617e-06'
p59
sF4.632
S'1.81075076912e-06'
p60
sF1.56
S'0.0593799405948'
p61
sF4.452
S'4.25370830335e-06'
p62
sF1.602
S'0.0545778047461'
p63
sF2.977
S'0.00145542005053'
p64
sF2.819
S'0.00240867590624'
p65
sF3.234
S'0.000610347278015'
p66
sF3.581
S'0.000171140827116'
p67
sF3.45
S'0.000280293276816'
p68
sF3.367
S'0.000379953441732'
p69
sF4.037
S'2.70695344275e-05'
p70
sF2.022
S'0.0215881759302'
p71
sF2.072
S'0.0191327205977'
p72
sF4.387
S'5.74623948605e-06'
p73
sF3.715
S'0.000101601847223'
p74
sF3.777
S'7.93643657755e-05'
p75
sF3.294
S'0.000493862492345'
p76
sF3.026
S'0.00123906151413'
p77
sF4.272
S'9.68637882517e-06'
p78
sF2.353
S'0.00931131704505'
p79
sF1.024
S'0.152917637454'
p80
sF4.606
S'2.05244193837e-06'
p81
sF1.704
S'0.0441905436203'
p82
sF1.147
S'0.125690810461'
p83
sF3.227
S'0.000625477300821'
p84
sF4.72
S'1.17922321652e-06'
p85
sF2.982
S'0.00143185999445'
p86
sF4.913
S'4.48466384687e-07'
p87
sF4.641
S'1.73363562726e-06'
p88
sF3.786
S'7.65458368699e-05'
p89
sF1.169
S'0.121201815686'
p90
sF4.447
S'4.35389189241e-06'
p91
sF3.961
S'3.73182663861e-05'
p92
sF2.356
S'0.00923645884834'
p93
sF4.797
S'8.0529800748e-07'
p94
sF1.282
S'0.0999213231134'
p95
sF2.37
S'0.00889404263034'
p96
sF1.389
S'0.0824163750241'
p97
sF2.393
S'0.00835562054374'
p98
sF4.051
S'2.54996037539e-05'
p99
sF1.844
S'0.0325915700897'
p100
sF2.332
S'0.00985034557964'
p101
sF4.365
S'6.35613792797e-06'
p102
sF2.137
S'0.01629899581'
p103
sF4.871
S'5.55174199947e-07'
p104
sF3.264
S'0.000549255827222'
p105
sF1.337
S'0.0906113184182'
p106
sF2.889
S'0.00193234537066'
p107
sF3.599
S'0.000159721594732'
p108
sF3.141
S'0.000841860162005'
p109
sF4.83
S'6.82665252562e-07'
p110
sF1.259
S'0.104015165936'
p111
sF1.631
S'0.051445159755'
p112
sF3.665
S'0.000123669291492'
p113
sF4.184
S'1.43212054662e-05'
p114
sF1.229
S'0.10953590301'
p115
sF3.953
S'3.85887185537e-05'
p116
sF2.271
S'0.0115734889741'
p117
sF2.673
S'0.00375881252341'
p118
sF1.197
S'0.115653277375'
p119
sF1.19
S'0.117023196023'
p120
sF2.211
S'0.0135179185295'
p121
sF4.31
S'8.16272730276e-06'
p122
sF2.916
S'0.00177275250426'
p123
sF4.852
S'6.11113115702e-07'
p124
sF2.466
S'0.00683156671192'
p125
sF1.608
S'0.0539175893899'
p126
sF4.65
S'1.65967514437e-06'
p127
sF2.741
S'0.00306262537504'
p128
sF2.055
S'0.0199395023561'
p129
sF1.921
S'0.0273658537444'
p130
sF3.094
S'0.000987387432265'
p131
sF3.324
S'0.000443680979567'
p132
sF2.763
S'0.00286363832293'
p133
sF2.498
S'0.00624480969106'
p134
sF2.234
S'0.0127415365305'
p135
sF4.919
S'4.3493734796e-07'
p136
sF4.711
S'1.23252118134e-06'
p137
sF2.121
S'0.0169609012122'
p138
sF2.326
S'0.0100092753409'
p139
sF3.932
S'4.21210328756e-05'
p140
sF2.602
S'0.00463409261246'
p141
sF4.065
S'2.40162309927e-05'
p142
sF4.287
S'9.05511466418e-06'
p143
sF3.053
S'0.00113282969162'
p144
sF2.736
S'0.00310955130046'
p145
sF1.193
S'0.116434686525'
p146
sF2.451
S'0.00712299766511'
p147
sF4.176
S'1.48339908961e-05'
p148
sF3.934
S'4.17718914341e-05'
p149
sF4.135
S'1.77477317713e-05'
p150
sF1.311
S'0.0949288818053'
p151
sF1.767
S'0.0386141141508'
p152
sF4.082
S'2.23248984153e-05'
p153
sF1.62
S'0.0526161384543'
p154
sF2.837
S'0.00227698060009'
p155
sF2.463
S'0.00688899579289'
p156
sF2.859
S'0.00212489392357'
p157
sF4.183
S'1.43843695969e-05'
p158
sF3.589
S'0.000165974420544'
p159
sF3.391
S'0.000348190505604'
p160
sF4.798
S'8.01288895293e-07'
p161
sF3.991
S'3.28976401804e-05'
p162
sF4.208
S'1.28820433414e-05'
p163
sF4.108
S'1.99550052179e-05'
p164
sF3.1
S'0.000967603213218'
p165
sF4.518
S'3.12132421465e-06'
p166
sF2.642
S'0.00412090279352'
p167
sF2.733
S'0.00313801661574'
p168
sF3.504
S'0.00022916267895'
p169
sF2.695
S'0.00351943155239'
p170
sF3.679
S'0.000117075134045'
p171
sF3.9
S'4.80963440176e-05'
p172
sF2.381
S'0.00863285597618'
p173
sF3.105
S'0.00095139512293'
p174
sF3.231
S'0.000616789699348'
p175
sF3.425
S'0.000307399710305'
p176
sF3.31
S'0.000466479856108'
p177
sF4.113
S'1.952751929e-05'
p178
sF4.338
S'7.18925775218e-06'
p179
sF2.186
S'0.0144078026641'
p180
sF1.274
S'0.101331708086'
p181
sF3.26
S'0.000557061069025'
p182
sF1.303
S'0.0962873807826'
p183
sF4.955
S'3.61651446101e-07'
p184
sF2.222
S'0.0131416528002'
p185
sF2.465
S'0.00685066257717'
p186
sF1.349
S'0.0886684830455'
p187
sF2.17
S'0.0150034229737'
p188
sF3.22
S'0.00064095298366'
p189
sF4.785
S'8.54936663835e-07'
p190
sF2.145
S'0.0159764234948'
p191
sF3.677
S'0.000117996520262'
p192
sF3.265
S'0.000547320382708'
p193
sF3.999
S'3.18053400542e-05'
p194
sF2.391
S'0.00840127643782'
p195
sF1.758
S'0.03937375466'
p196
sF2.566
S'0.00514394140924'
p197
sF2.968
S'0.00149872165302'
p198
sF2.375
S'0.00877447509574'
p199
sF3.102
S'0.000961089791926'
p200
sF2.681
S'0.00367012579711'
p201
sF4.076
S'2.29085092905e-05'
p202
sF2.35
S'0.00938670553484'
p203
sF1.342
S'0.0897979978289'
p204
sF1.213
S'0.112564910256'
p205
sF1.062
S'0.144117842597'
p206
sF2.927
S'0.00171124440369'
p207
sF1.401
S'0.0806070365534'
p208
sF1.136
S'0.127978282151'
p209
sF2.771
S'0.00279422134076'
p210
sF1.143
S'0.126519295529'
p211
sF4.933
S'4.04880775738e-07'
p212
sF3.507
S'0.000226594574284'
p213
sF2.842
S'0.0022415745791'
p214
sF2.449
S'0.00716267240697'
p215
sF1.71
S'0.043632936524'
p216
sF1.224
S'0.110476113766'
p217
sF3.024
S'0.00124728219293'
p218
sF3.017
S'0.0012764490594'
p219
sF4.716
S'1.20263216958e-06'
p220
sF2.886
S'0.00195086078626'
p221
sF3.014
S'0.00128913902974'
p222
sF1.777
S'0.0377841199155'
p223
sF2.406
S'0.00806413235702'
p224
sF2.892
S'0.00191398973463'
p225
sF2.787
S'0.00265992394982'
p226
sF2.991
S'0.00139032746655'
p227
sF3.132
S'0.00086809937641'
p228
sF4.675
S'1.46976809764e-06'
p229
sF1.329
S'0.0919239849387'
p230
sF1.747
S'0.040318669055'
p231
sF3.471
S'0.000259261999778'
p232
sF1.9
S'0.028716559816'
p233
sF2.76
S'0.00289006807623'
p234
sF4.506
S'3.30305435108e-06'
p235
sF4.103
S'2.03913624851e-05'
p236
sF3.064
S'0.00109199455048'
p237
sF2.582
S'0.00491147924635'
p238
sF4.367
S'6.29823637443e-06'
p239
sF3.222
S'0.000636495675694'
p240
sF3.376
S'0.000367739596219'
p241
sF1.088
S'0.138297553767'
p242
sF3.799
S'7.26405462046e-05'
p243
sF3.668
S'0.000122227592064'
p244
sF1.68
S'0.0464786578637'
p245
sF1.955
S'0.0252915351352'
p246
sF4.473
S'3.85648887331e-06'
p247
sF4.215
S'1.24889094598e-05'
p248
sF3.269
S'0.000539641507679'
p249
sF3.955
S'3.82673258845e-05'
p250
sF2.974
S'0.00146972537565'
p251
sF3.914
S'4.53898175509e-05'
p252
sF1.468
S'0.0710521114534'
p253
sF3.583
S'0.000169835303892'
p254
sF4.274
S'9.59985173192e-06'
p255
sF4.041
S'2.66118792125e-05'
p256
sF3.758
S'8.56384406823e-05'
p257
sF4.684
S'1.40665003356e-06'
p258
sF2.84
S'0.00225567669154'
p259
sF1.885
S'0.0297149189083'
p260
sF1.497
S'0.0671966290277'
p261
sF3.873
S'5.37519138449e-05'
p262
sF4.883
S'5.22419355258e-07'
p263
sF1.178
S'0.119398303115'
p264
sF2.638
S'0.00416982909364'
p265
sF2.402
S'0.00815285421572'
p266
sF4.814
S'7.39694034343e-07'
p267
sF2.686
S'0.00361565444072'
p268
sF2.355
S'0.00926135284834'
p269
sF3.168
S'0.000767457602423'
p270
sF4.738
S'1.07918906251e-06'
p271
sF2.048
S'0.0202799996986'
p272
sF1.28
S'0.100272567954'
p273
sF2.203
S'0.0137973743209'
p274
sF2.199
S'0.0139389611511'
p275
sF2.068
S'0.0193200115489'
p276
sF1.88
S'0.0300540389612'
p277
sF4.909
S'4.5770989112e-07'
p278
sF2.676
S'0.00372533225653'
p279
sF4.224
S'1.20002024293e-05'
p280
sF1.117
S'0.131997162594'
p281
sF4.634
S'1.79333496431e-06'
p282
sF1.246
S'0.106382197592'
p283
sF1.672
S'0.0472621610366'
p284
sF2.468
S'0.00679351598175'
p285
sF2.433
S'0.00748715044589'
p286
sF1.127
S'0.129871240492'
p287
sF2.274
S'0.0114829932619'
p288
sF3.408
S'0.000327204473495'
p289
sF1.617
S'0.0529391404548'
p290
sF2.613
S'0.00448756511159'
p291
sF2.735
S'0.00311901380303'
p292
sF3.318
S'0.0004533224223'
p293
sF3.876
S'5.30938417824e-05'
p294
sF3.321
S'0.000448477686726'
p295
sF3.209
S'0.000665987460459'
p296
sF3.312
S'0.000463157729618'
p297
sF3.181
S'0.000733838148097'
p298
sF4.552
S'2.65691678141e-06'
p299
sF1.796
S'0.0362472585152'
p300
sF1.606
S'0.054136954978'
p301
sF1.082
S'0.139626263973'
p302
sF1.362
S'0.0865989425584'
p303
sF1.98
S'0.0238517643415'
p304
sF2.292
S'0.010952821589'
p305
sF4.693
S'1.34613745278e-06'
p306
sF1.13
S'0.12923811224'
p307
sF2.457
S'0.0070051343333'
p308
sF3.271
S'0.000535839552171'
p309
sF2.796
S'0.00258697002153'
p310
sF3.673
S'0.000119859741697'
p311
sF1.789
S'0.0368074077775'
p312
sF3.821
S'6.64558260925e-05'
p313
sF2.432
S'0.00750785365723'
p314
sF2.21
S'0.0135525811464'
p315
sF3.342
S'0.000415885303606'
p316
sF4.782
S'8.67798395877e-07'
p317
sF4.571
S'2.42701141124e-06'
p318
sF3.517
S'0.000218226890954'
p319
sF1.587
S'0.0562563223125'
p320
sF2.314
S'0.01033386107'
p321
sF2.55
S'0.00538614595407'
p322
sF3.055
S'0.00112530261065'
p323
sF3.845
S'6.02762192603e-05'
p324
sF1.07
S'0.142309654356'
p325
sF3.964
S'3.68521260676e-05'
p326
sF3.687
S'0.000113456678491'
p327
sF4.697
S'1.32005225772e-06'
p328
sF2.024
S'0.0214850758734'
p329
sF2.392
S'0.00837842118857'
p330
sF3.897
S'4.86958095703e-05'
p331
sF3.242
S'0.00059347011209'
p332
sF2.597
S'0.00470209620468'
p333
sF2.783
S'0.002692940307'
p334
sF4.461
S'4.07890451598e-06'
p335
sF4.308
S'8.23686926272e-06'
p336
sF4.631
S'1.81951936555e-06'
p337
sF3.756
S'8.63253462943e-05'
p338
sF4.561
S'2.5455290521e-06'
p339
sF4.044
S'2.62734594785e-05'
p340
sF1.037
S'0.149867928579'
p341
sF2.158
S'0.0154639158991'
p342
sF4.381
S'5.90679356447e-06'
p343
sF1.074
S'0.141411340775'
p344
sF3.837
S'6.22732360512e-05'
p345
sF2.007
S'0.0223748314913'
p346
sF2.911
S'0.00180137008768'
p347
sF1.55
S'0.0605707580021'
p348
sF4.549
S'2.6950721541e-06'
p349
sF2.712
S'0.00334392964128'
p350
sF4.464
S'4.02217819708e-06'
p351
sF1.36
S'0.0869149619471'
p352
sF1.049
S'0.147089059209'
p353
sF4.26
S'1.0221345184e-05'
p354
sF4.322
S'7.73105944763e-06'
p355
sF1.461
S'0.0720077207148'
p356
sF2.519
S'0.00588443283537'
p357
sF1.004
S'0.157689306794'
p358
sF4.579
S'2.33602099236e-06'
p359
sF2.159
S'0.0154250834671'
p360
sF4.511
S'3.22613604152e-06'
p361
sF2.784
S'0.00268465170845'
p362
sF1.528
S'0.0632562689783'
p363
sF2.363
S'0.00906383480074'
p364
sF2.671
S'0.00378128234058'
p365
sF2.765
S'0.00284613979021'
p366
sF1.186
S'0.117811149762'
p367
sF1.882
S'0.0299180078186'
p368
sF2.434
S'0.00746649754422'
p369
sF1.724
S'0.0423539215814'
p370
sF4.16
S'1.59123797191e-05'
p371
sF3.871
S'5.41948960222e-05'
p372
sF2.447
S'0.00720254195234'
p373
sF4.57
S'2.43862107378e-06'
p374
sF2.752
S'0.00296162604515'
p375
sF1.209
S'0.113331422689'
p376
sF3.186
S'0.00072127298629'
p377
sF4.297
S'8.65625975887e-06'
p378
sF2.855
S'0.00215184144656'
p379
sF2.581
S'0.00492572908889'
p380
sF2.286
S'0.0111271292796'
p381
sF2.699
S'0.00347740881705'
p382
sF4.862
S'5.81028114688e-07'
p383
sF2.97
S'0.00148899874524'
p384
sF4.29
S'8.93365591283e-06'
p385
sF1.919
S'0.0274921669239'
p386
sF4.904
S'4.69522444919e-07'
p387
sF1.956
S'0.025232577052'
p388
sF1.291
S'0.098351838757'
p389
sF4.249
S'1.07363459494e-05'
p390
sF2.491
S'0.00636920599048'
p391
sF2.941
S'0.00163577266917'
p392
sF2.696
S'0.00350888333495'
p393
sF3.566
S'0.00018123568487'
p394
sF2.646
S'0.00407249082335'
p395
sF3.968
S'3.62391669721e-05'
p396
sF2.873
S'0.00203297058181'
p397
sF1.964
S'0.0247650459546'
p398
sF3.235
S'0.00060821365386'
p399
sF4.811
S'7.50885085985e-07'
p400
sF1.16
S'0.123024403051'
p401
sF4.149
S'1.66965405553e-05'
p402
sF2.853
S'0.00216543107813'
p403
sF3.681
S'0.000116160502505'
p404
sF4.662
S'1.56575595354e-06'
p405
sF1.996
S'0.0229669613986'
p406
sF1.355
S'0.0877087785145'
p407
sF1.816
S'0.0346851860653'
p408
sF1.184
S'0.118206531409'
p409
sF1.201
S'0.114875600664'
p410
sF3.927
S'4.30059905823e-05'
p411
sF4.88
S'5.30429202975e-07'
p412
sF2.556
S'0.00529415594338'
p413
sF3.596
S'0.00016157389895'
p414
sF2.261
S'0.0118796285312'
p415
sF1.75
S'0.0400591568638'
p416
sF2.229
S'0.0129069523924'
p417
sF2.386
S'0.00851637553065'
p418
sF3.771
S'8.12973365473e-05'
p419
sF4.438
S'4.53993096315e-06'
p420
sF4.945
S'3.80719322257e-07'
p421
sF1.426
S'0.0769341710283'
p422
sF3.842
S'6.1017918151e-05'
p423
sF4.863
S'5.78099235432e-07'
p424
sF2.111
S'0.0173861559311'
p425
sF2.722
S'0.00324440712324'
p426
sF4.258
S'1.03131974573e-05'
p427
sF4.559
S'2.5698885664e-06'
p428
sF1.097
S'0.13632069605'
p429
sF1.647
S'0.0497790229169'
p430
sF3.555
S'0.000188989544723'
p431
sF4.611
S'2.0036826898e-06'
p432
sF1.803
S'0.0356941073386'
p433
sF2.965
S'0.0015134146478'
p434
sF4.916
S'4.41651985707e-07'
p435
sF4.138
S'1.75173185688e-05'
p436
sF4.417
S'5.00401151116e-06'
p437
sF2.524
S'0.00580139643134'
p438
sF3.283
S'0.000513543328393'
p439
sF4.568
S'2.46200016342e-06'
p440
sF4.668
S'1.52072950164e-06'
p441
sF4.777
S'8.89648868809e-07'
p442
sF4.654
S'1.62778400698e-06'
p443
sF4.414
S'5.07389791522e-06'
p444
sF4.488
S'3.59474644572e-06'
p445
sF2.81
S'0.00247707499879'
p446
sF2.945
S'0.00161477331435'
p447
sF4.627
S'1.8550025712e-06'
p448
sF1.586
S'0.0563696547794'
p449
sF3.63
S'0.000141710609876'
p450
sF2.985
S'0.00141789161908'
p451
sF3.335
S'0.000426496996364'
p452
sF3.291
S'0.000499159566382'
p453
sF2.658
S'0.00393029465185'
p454
sF2.04
S'0.0206751628661'
p455
sF2.014
S'0.0220047667449'
p456
sF1.51
S'0.0655217120889'
p457
sF3.745
S'9.0196887871e-05'
p458
sF4.213
S'1.26000531642e-05'
p459
sF3.768
S'8.22803513138e-05'
p460
sF1.633
S'0.0512344983343'
p461
sF1.918
S'0.0275555055742'
p462
sF4.857
S'5.95887970989e-07'
p463
sF3.15
S'0.000816352312829'
p464
sF1.555
S'0.0599730346636'
p465
sF4.167
S'1.54317248914e-05'
p466
sF3.95
S'3.90755965978e-05'
p467
sF1.756
S'0.0395442042809'
p468
sF1.575
S'0.0576282222762'
p469
sF2.688
S'0.00359406983283'
p470
sF3.284
S'0.000511724611901'
p471
sF1.778
S'0.037701927444'
p472
sF1.678
S'0.0466735495072'
p473
sF2.953
S'0.0015735098152'
p474
sF2.861
S'0.00211153526011'
p475
sF3.44
S'0.000290857093291'
p476
sF2.934
S'0.00167312104201'
p477
sF4.536
S'2.86655899093e-06'
p478
sF1.373
S'0.0848761733499'
p479
sF3.109
S'0.000938608591616'
p480
sF2.134
S'0.0164213904092'
p481
sF4.987
S'3.06620326694e-07'
p482
sF1.328
S'0.0920890534574'
p483
sF1.823
S'0.034151695446'
p484
sF3.355
S'0.000396824922573'
p485
sF2.114
S'0.0172576336597'
p486
sF3.319
S'0.000451702147057'
p487
sF1.533
S'0.062637927455'
p488
sF1.946
S'0.0258273698058'
p489
sF3.068
S'0.00107748309012'
p490
sF4.356
S'6.62303878654e-06'
p491
sF3.47
S'0.000260229182427'
p492
sF4.766
S'9.39596291826e-07'
p493
sF1.729
S'0.0419045475395'
p494
sF1.413
S'0.0788278620503'
p495
sF2.346
S'0.00948805373516'
p496
sF3.524
S'0.000212542124574'
p497
sF4.725
S'1.15057678154e-06'
p498
sF4.962
S'3.48854977985e-07'
p499
sF2.729
S'0.00317633519637'
p500
sF3.179
S'0.000738920455873'
p501
sF1.312
S'0.0947600672763'
p502
sF3.56
S'0.000185427396933'
p503
sF2.384
S'0.00856280118527'
p504
sF1.961
S'0.0249395114483'
p505
sF3.735
S'9.38575936071e-05'
p506
sF4.005
S'3.10087405743e-05'
p507
sF4.586
S'2.25909299537e-06'
p508
sF4.345
S'6.96378315773e-06'
p509
sF3.716
S'0.000101200790676'
p510
sF4.996
S'2.92658301069e-07'
p511
sF1.91
S'0.0280666066598'
p512
sF2.881
S'0.00198207820252'
p513
sF4.307
S'8.27418050307e-06'
p514
sF1.179
S'0.119199087917'
p515
sF1.895
S'0.0290462008353'
p516
sF1.263
S'0.103294589858'
p517
sF1.78
S'0.0375379803485'
p518
sF1.865
S'0.0310907021043'
p519
sF4.837
S'6.5906714064e-07'
p520
sF4.163
S'1.57046683832e-05'
p521
sF3.089
S'0.00100415719533'
p522
sF3.173
S'0.000754362622269'
p523
sF2.417
S'0.00782450856251'
p524
sF2.262
S'0.0118487016486'
p525
sF2.499
S'0.00622721555199'
p526
sF3.25
S'0.000577025042391'
p527
sF2.644
S'0.00409663280798'
p528
sF2.505
S'0.00612256966925'
p529
sF1.106
S'0.134363259687'
p530
sF4.324
S'7.6612647771e-06'
p531
sF1.57
S'0.0582075556386'
p532
sF4.562
S'2.53343236375e-06'
p533
sF4.064
S'2.41194127994e-05'
p534
sF1.347
S'0.0889901163409'
p535
sF4.775
S'8.98536271449e-07'
p536
sF4.107
S'2.0041561474e-05'
p537
sF3.204
S'0.00067766238338'
p538
sF1.745
S'0.0404924344818'
p539
sF4.121
S'1.8861571284e-05'
p540
sF4.718
S'1.19087247176e-06'
p541
sF1.569
S'0.058323969508'
p542
sF2.603
S'0.00462059768514'
p543
sF2.801
S'0.00254722595146'
p544
sF4.144
S'1.70649871151e-05'
p545
sF2.554
S'0.00532466282691'
p546
sF1.25
S'0.105649773667'
p547
sF4.329
S'7.48939668624e-06'
p548
sF2.737
S'0.0031001146519'
p549
sF2.849
S'0.00219284402346'
p550
sF2.558
S'0.00526380461305'
p551
sF3.663
S'0.00012463926938'
p552
sF3.122
S'0.000898134693147'
p553
sF4.513
S'3.19585110538e-06'
p554
sF4.842
S'6.42693820866e-07'
p555
sF3.532
S'0.000206214677734'
p556
sF4.454
S'4.21425499745e-06'
p557
sF2.073
S'0.0190861397828'
p558
sF2.462
S'0.00690823333777'
p559
sF3.158
S'0.000794277789614'
p560
sF1.564
S'0.0589087842097'
p561
sF4.964
S'3.45279715328e-07'
p562
sF1.76
S'0.0392039032875'
p563
sF2.827
S'0.00234931639457'
p564
sF4.268
S'9.86166639378e-06'
p565
sF3.229
S'0.000621119474005'
p566
sF3.404
S'0.000332033766949'
p567
sF2.245
S'0.0123840662821'
p568
sF3.073
S'0.00105959243865'
p569
sF1.215
S'0.112183045691'
p570
sF4.498
S'3.42978487169e-06'
p571
sF1.287
S'0.0990471440696'
p572
sF2.778
S'0.00273473091164'
p573
sF1.907
S'0.0282602937462'
p574
sF2.611
S'0.00451389468829'
p575
sF3.983
S'3.40253777897e-05'
p576
sF4.267
S'9.90595797492e-06'
p577
sF2.188
S'0.0143348011591'
p578
sF1.001
S'0.158413404192'
p579
sF2.898
S'0.00187775294878'
p580
sF3.042
S'0.00117505947226'
p581
sF3.784
S'7.71639113241e-05'
p582
sF2.278
S'0.0113632887993'
p583
sF4.688
S'1.37944009328e-06'
p584
sF2.793
S'0.00261108459734'
p585
sF3.477
S'0.000253528908829'
p586
sF4.218
S'1.23239409707e-05'
p587
sF3.94
S'4.07408045586e-05'
p588
sF3.734
S'9.42312465623e-05'
p589
sF4.755
S'9.92232085893e-07'
p590
sF1.492
S'0.0678495726689'
p591
sF4.85
S'6.17307372009e-07'
p592
sF1.146
S'0.12589757603'
p593
sF3.061
S'0.00110299547209'
p594
sF2.334
S'0.00979786096003'
p595
sF4.463
S'4.04100264956e-06'
p596
sF1.116
S'0.132211067303'
p597
sF4.873
S'5.49581115051e-07'
p598
sF3.187
S'0.000718783874336'
p599
sF3.855
S'5.78648145825e-05'
p600
sF3.724
S'9.80454624538e-05'
p601
sF2.161
S'0.0153476697075'
p602
sF4.585
S'2.26993217956e-06'
p603
sF4.422
S'4.88957283316e-06'
p604
sF2.719
S'0.00327398040499'
p605
sF4.832
S'6.75841275639e-07'
p606
sF4.932
S'4.06959584194e-07'
p607
sF4.815
S'7.35999450859e-07'
p608
sF1.161
S'0.122820949723'
p609
sF1.348
S'0.0888291913028'
p610
sF3.057
S'0.0011178213799'
p611
sF4.04
S'2.67256007195e-05'
p612
sF2.856
S'0.00214507567086'
p613
sF2.377
S'0.00872704406362'
p614
sF3.762
S'8.42800239349e-05'
p615
sF3.967
S'3.63914962552e-05'
p616
sF1.415
S'0.078534248017'
p617
sF1.864
S'0.0311608521687'
p618
sF1.374
S'0.0847208412107'
p619
sF1.206
S'0.113908745215'
p620
sF4.062
S'2.43270385722e-05'
p621
sF1.731
S'0.0417258822332'
p622
sF1.974
S'0.0241908714724'
p623
sF4.472
S'3.87457137461e-06'
p624
sF1.529
S'0.0631322219597'
p625
sF2.296
S'0.010837940688'
p626
sF2.165
S'0.015193842636'
p627
sF3.417
S'0.000316576398066'
p628
sF2.962
S'0.00152823891966'
p629
sF1.408
S'0.0795655349965'
p630
sF3.434
S'0.000297372098006'
p631
sF3.672
S'0.000120329841219'
p632
sF2.009
S'0.0222685668678'
p633
sF3.827
S'6.48572574197e-05'
p634
sF1.552
S'0.0603311118041'
p635
sF2.411
S'0.00795442422061'
p636
sF2.36
S'0.00913746753057'
p637
sF2.532
S'0.00567069956259'
p638
sF2.586
S'0.00485484652739'
p639
sF2.427
S'0.00761212792729'
p640
sF3.163
S'0.000780761658134'
p641
sF2.241
S'0.0125130375041'
p642
sF1.484
S'0.0689044602955'
p643
sF1.243
S'0.106933916733'
p644
sF1.414
S'0.0786809512412'
p645
sF2.295
S'0.0108665621483'
p646
sF1.939
S'0.0262506690796'
p647
sF4.923
S'4.26137263112e-07'
p648
sF1.597
S'0.055132853612'
p649
sF4.251
S'1.06409084049e-05'
p650
sF3.278
S'0.000522726978141'
p651
sF1.619
S'0.0527236315574'
p652
sF3.442
S'0.000288715124861'
p653
sF4.187
S'1.41332912837e-05'
p654
sF4.034
S'2.74176588391e-05'
p655
sF4.39
S'5.66753304183e-06'
p656
sF4.618
S'1.93728126719e-06'
p657
sF4.523
S'3.04846200949e-06'
p658
sF4.21
S'1.27685344137e-05'
p659
sF2.791
S'0.00262727361449'
p660
sF4.645
S'1.70038227471e-06'
p661
sF2.337
S'0.00971959204077'
p662
sF1.369
S'0.0854996374549'
p663
sF3.368
S'0.000378577980589'
p664
sF1.139
S'0.127351577099'
p665
sF4.826
S'6.96512538591e-07'
p666
sF2.906
S'0.00183040724519'
p667
sF4.563
S'2.5213907348e-06'
p668
sF3.945
S'3.98999893048e-05'
p669
sF2.897
S'0.00188374877699'
p670
sF3.401
S'0.000335699139114'
p671
sF4.765
S'9.44268247717e-07'
p672
sF3.614
S'0.000150754530078'
p673
sF4.52
S'3.09198156896e-06'
p674
sF1.787
S'0.036968744285'
p675
sF1.754
S'0.039715253573'
p676
sF3.658
S'0.000127095523439'
p677
sF4.44
S'4.49794388857e-06'
p678
sF3.899
S'4.8295387338e-05'
p679
sF1.393
S'0.0818098953404'
p680
sF2.883
S'0.00196953720419'
p681
sF3.904
S'4.73078901725e-05'
p682
sF4.989
S'3.03463235216e-07'
p683
sF2.311
S'0.010416427447'
p684
sF4.809
S'7.58436032297e-07'
p685
sF3.721
S'9.92177191964e-05'
p686
sF4.016
S'2.95971276889e-05'
p687
sF4.75
S'1.01708324257e-06'
p688
sF3.819
S'6.69968813811e-05'
p689
sF3.6
S'0.000159108590158'
p690
sF3.398
S'0.000339402100478'
p691
sF3.863
S'5.60015039192e-05'
p692
sF1.233
S'0.108787882086'
p693
sF4.37
S'6.2123268269e-06'
p694
sF1.906
S'0.0283251028271'
p695
sF4.709
S'1.24467535639e-06'
p696
sF1.807
S'0.0353811396004'
p697
sF1.111
S'0.133284174652'
p698
sF3.426
S'0.000306270191091'
p699
sF1.873
S'0.0305341924962'
p700
sF2.08
S'0.0187627664349'
p701
sF4.939
S'3.92621062504e-07'
p702
sF2.45
S'0.00714281073527'
p703
sF2.214
S'0.0134143894671'
p704
sF2.348
S'0.00943726065247'
p705
sF4.392
S'5.61563496407e-06'
p706
sF2.383
S'0.00858609716533'
p707
sF4.349
S'6.83798561427e-06'
p708
sF4.426
S'4.79982617721e-06'
p709
sF1.489
S'0.0682436843673'
p710
sF2.575
S'0.00501200433176'
p711
sF4.333
S'7.35455549508e-06'
p712
sF2.244
S'0.0124162006718'
p713
sF1.02
S'0.153864230373'
p714
sF1.556
S'0.0598540461838'
p715
sF1.685
S'0.0459942857505'
p716
sF1.928
S'0.0269275630878'
p717
sF4.344
S'6.99557572868e-06'
p718
sF3.127
S'0.000882999636871'
p719
sF2.996
S'0.00136773216868'
p720
sF1.898
S'0.028848041014'
p721
sF1.506
S'0.0660335868338'
p722
sF3.467
S'0.000263150944974'
p723
sF4.769
S'9.25713302005e-07'
p724
sF2.655
S'0.00396542042648'
p725
sF2.705
S'0.00341521947308'
p726
sF4.109
S'1.98688038057e-05'
p727
sF3.36
S'0.000389712362582'
p728
sF2.263
S'0.0118178446436'
p729
sF3.41
S'0.000324814397419'
p730
sF2.509
S'0.00605367421979'
p731
sF3.849
S'5.93005037238e-05'
p732
sF3.835
S'6.27821472256e-05'
p733
sF4.174
S'1.49648877245e-05'
p734
sF4.948
S'3.74899545001e-07'
p735
sF2.96
S'0.00153819521174'
p736
sF3.638
S'0.000137381712611'
p737
sF3.357
S'0.000393965563107'
p738
sF1.21
S'0.113139446444'
p739
sF3.045
S'0.00116340154957'
p740
sF2.328
S'0.00995605183373'
p741
sF4.142
S'1.72145171686e-05'
p742
sF4.114
S'1.94430716614e-05'
p743
sF4.497
S'3.4459494076e-06'
p744
sF3.637
S'0.000137915965557'
p745
sF2.065
S'0.0194615001472'
p746
sF4.317
S'7.90820791965e-06'
p747
sF2.87
S'0.00205235899494'
p748
sF4.003
S'3.12721510898e-05'
p749
sF4.975
S'3.26238199558e-07'
p750
sF2.475
S'0.00666180879198'
p751
sF3.664
S'0.000124153391937'
p752
sF2.453
S'0.00708351693286'
p753
sF3.68
S'0.000116616976815'
p754
sF4.431
S'4.6898544619e-06'
p755
sF1.914
S'0.0278100778756'
p756
sF1.065
S'0.143437964877'
p757
sF4.866
S'5.6939758522e-07'
p758
sF3.622
S'0.000146167060752'
p759
sF4.276
S'9.5140611198e-06'
p760
sF4.242
S'1.10768346044e-05'
p761
sF3.603
S'0.00015728276432'
p762
sF1.283
S'0.0997460380385'
p763
sF4.081
S'2.2421177543e-05'
p764
sF1.188
S'0.117416704848'
p765
sF4.727
S'1.13930632585e-06'
p766
sF1.988
S'0.0234058449864'
p767
sF3.737
S'9.31144618465e-05'
p768
sF3.537
S'0.000202349833016'
p769
sF3.406
S'0.00032961089597'
p770
sF3.688
S'0.000113011825253'
p771
sF1.583
S'0.0567107321947'
p772
sF4.179
S'1.46396842895e-05'
p773
sF1.002
S'0.158171796424'
p774
sF1.443
S'0.0745102356152'
p775
sF2.336
S'0.00974562076761'
p776
sF2.088
S'0.0183989173419'
p777
sF2.139
S'0.0162178341863'
p778
sF3.166
S'0.000772753968457'
p779
sF2.844
S'0.00222755239566'
p780
sF3.942
S'4.04024883024e-05'
p781
sF2.549
S'0.00540161501329'
p782
sF2.528
S'0.00573571759854'
p783
sF2.254
S'0.0120980839876'
p784
sF3.611
S'0.000152509331022'
p785
sF1.289
S'0.0986990432894'
p786
sF4.09
S'2.15686594482e-05'
p787
sF3.381
S'0.000361112714389'
p788
sF3.083
S'0.00102462577477'
p789
sF4.226
S'1.18940995149e-05'
p790
sF3.898
S'4.84952082432e-05'
p791
sF4.636
S'1.77607982346e-06'
p792
sF1.27
S'0.102042315075'
p793
sF2.755
S'0.00293460677346'
p794
sF1.775
S'0.0379489435937'
p795
sF4.82
S'7.17791106947e-07'
p796
sF4.185
S'1.42583050622e-05'
p797
sF2.293
S'0.0109240024764'
p798
sF4.595
S'2.16374634313e-06'
p799
sF1.646
S'0.0498818795074'
p800
sF2.164
S'0.0152321747019'
p801
sF4.991
S'3.00337488547e-07'
p802
sF2.869
S'0.00205885899328'
p803
sF4.982
S'3.14652174793e-07'
p804
sF2.268
S'0.0116646033382'
p805
sF2.539
S'0.00555849116294'
p806
sF1.466
S'0.0713241434295'
p807
sF1.769
S'0.038446937293'
p808
sF3.135
S'0.000859270557769'
p809
sF2.714
S'0.00332380831048'
p810
sF4.134
S'1.78251736398e-05'
p811
sF3.116
S'0.000916611362261'
p812
sF1.538
S'0.0620243073915'
p813
sF1.23
S'0.109348552426'
p814
sF3.704
S'0.000106113128572'
p815
sF1.435
S'0.0756435487989'
p816
sF3.397
S'0.000340644834812'
p817
sF1.661
S'0.0483567233555'
p818
sF2.629
S'0.00428181804632'
p819
sF1.705
S'0.0440972122109'
p820
sF2.804
S'0.00252364525384'
p821
sF4.928
S'4.1537808636e-07'
p822
sF3.075
S'0.00105251276838'
p823
sF4.374
S'6.09951891675e-06'
p824
sF4.764
S'9.48962518599e-07'
p825
sF1.727
S'0.0420838317397'
p826
sF1.639
S'0.0506066298468'
p827
sF1.132
S'0.128817217208'
p828
sF3.34
S'0.00041889194945'
p829
sF3.05
S'0.00114420683102'
p830
sF2.919
S'0.00175578111866'
p831
sF1.706
S'0.044004039796'
p832
sF4.093
S'2.12913860293e-05'
p833
sF1.948
S'0.0257074815759'
p834
sF3.627
S'0.000143366646997'
p835
sF1.929
S'0.0268654311139'
p836
sF2.893
S'0.00190790648564'
p837
sF2.257
S'0.012004037384'
p838
sF2.368
S'0.00894226795037'
p839
sF1.656
S'0.0488609094106'
p840
sF4.604
S'2.07226230592e-06'
p841
sF3.648
S'0.000132144819163'
p842
sF3.411
S'0.000323625457526'
p843
sF1.047
S'0.147549789096'
p844
sF2.875
S'0.00202013748995'
p845
sF4.708
S'1.25079550747e-06'
p846
sF3.545
S'0.000196306543069'
p847
sF3.301
S'0.000481704412846'
p848
sF1.972
S'0.0243048032593'
p849
sF2.098
S'0.0179525726859'
p850
sF2.324
S'0.0100627470205'
p851
sF4.597
S'2.14308809718e-06'
p852
sF4.819
S'7.21397769434e-07'
p853
sF2.303
S'0.0106394215469'
p854
sF3.353
S'0.000399703532849'
p855
sF4.539
S'2.82608180381e-06'
p856
sF4.277
S'9.47144013981e-06'
p857
sF2.508
S'0.00607083335747'
p858
sF3.009
S'0.00131054557949'
p859
sF3.817
S'6.75420850712e-05'
p860
sF4.805
S'7.73757525452e-07'
p861
sF1.09
S'0.137856572032'
p862
sF1.851
S'0.0320847765522'
p863
sF1.677
S'0.0467712409234'
p864
sF1.119
S'0.131570069517'
p865
sF1.152
S'0.124660536664'
p866
sF4.793
S'8.21528123779e-07'
p867
sF1.438
S'0.0752170270718'
p868
sF2.183
S'0.014517905007'
p869
sF3.713
S'0.000102408443557'
p870
sF1.508
S'0.0657772635082'
p871
sF2.213
S'0.0134488228244'
p872
sF2.123
S'0.0168769259288'
p873
sF3.906
S'4.69182556881e-05'
p874
sF4.752
S'1.00707186402e-06'
p875
sF4.092
S'2.13834325912e-05'
p876
sF3.619
S'0.000147871819237'
p877
sF4.162
S'1.57736175541e-05'
p878
sF4.195
S'1.3643579394e-05'
p879
sF2.473
S'0.00669920714924'
p880
sF4.117
S'1.91918036447e-05'
p881
sF2.476
S'0.00664317891029'
p882
sF2.011
S'0.0221627283587'
p883
sF3.75
S'8.84172852008e-05'
p884
sF2.167
S'0.0151174270606'
p885
sF1.562
S'0.0591439944295'
p886
sF2.877
S'0.0020073779766'
p887
sF3.082
S'0.00102807418725'
p888
sF1.628
S'0.0517624428852'
p889
sF4.433
S'4.64654330303e-06'
p890
sF3.787
S'7.62385500877e-05'
p891
sF4.882
S'5.25076281354e-07'
p892
sF2.522
S'0.00583448541214'
p893
sF2.864
S'0.00209164005791'
p894
sF2.503
S'0.00615727720405'
p895
sF2.525
S'0.00578491446482'
p896
sF4.702
S'1.28812750118e-06'
p897
sF2.678
S'0.00370316091675'
p898
sF1.971
S'0.024361937908'
p899
sF2.812
S'0.00246172516606'
p900
sF2.347
S'0.00946262739099'
p901
sF1.795
S'0.0363268499682'
p902
sF4.319
S'7.83688910689e-06'
p903
sF3.147
S'0.000824774809085'
p904
sF4.462
S'4.05991130331e-06'
p905
sF2.697
S'0.00349836351721'
p906
sF2.902
S'0.00185394270148'
p907
sF3.08
S'0.0010350029748'
p908
sF4.522
S'3.06290298533e-06'
p909
sF3.039
S'0.00118682427201'
p910
sF2.03
S'0.0211782696427'
p911
sF1.644
S'0.0500881011882'
p912
sF1.788
S'0.0368880039139'
p913
sF3.852
S'5.85785114965e-05'
p914
sF1.099
S'0.13588403295'
p915
sF4.481
S'3.71470557149e-06'
p916
sF3.107
S'0.000944981993467'
p917
sF2.039
S'0.0207250137761'
p918
sF3.46
S'0.000270087693963'
p919
sF3.329
S'0.000435792021899'
p920
sF1.911
S'0.0280022904477'
p921
sF1.051
S'0.146629294919'
p922
sF2.937
S'0.00165702051885'
p923
sF3.304
S'0.000476579161206'
p924
sF1.725
S'0.042263736258'
p925
sF1.218
S'0.111611986373'
p926
sF1.989
S'0.0233506014833'
p927
sF1.196
S'0.115848279535'
p928
sF3.285
S'0.000509911858277'
p929
sF1.029
S'0.151739837432'
p930
sF3.244
S'0.000589318731245'
p931
sF1.804
S'0.035615653476'
p932
sF4.637
S'1.76751205976e-06'
p933
sF1.284
S'0.0995709777102'
p934
sF1.902
S'0.0285855772983'
p935
sF3.832
S'6.35528696776e-05'
p936
sF2.297
S'0.0108093848671'
p937
sF3.493
S'0.000238813254522'
p938
sF3.996
S'3.22108667907e-05'
p939
sF2.833
S'0.00230566929956'
p940
sF2.665
S'0.00384941613876'
p941
sF2.276
S'0.0114230048072'
p942
sF1.627
S'0.0518685488952'
p943
sF4.467
S'3.96620649231e-06'
p944
sF4.67
S'1.5059986776e-06'
p945
sF3.509
S'0.000224897452394'
p946
sF2.033
S'0.0210262615011'
p947
sF3.911
S'4.59573861116e-05'
p948
sF4.399
S'5.43754132883e-06'
p949
sF4.158
S'1.6052301201e-05'
p950
sF1.066
S'0.143211820953'
p951
sF3.27
S'0.00053773742183'
p952
sF3.624
S'0.000145040801835'
p953
sF3.363
S'0.000385501818934'
p954
sF4.01
S'3.03593739266e-05'
p955
sF4.965
S'3.43505349844e-07'
p956
sF2.711
S'0.00335403131259'
p957
sF3.336
S'0.000424965818871'
p958
sF1.189
S'0.117219833465'
p959
sF2.041
S'0.0206254135482'
p960
sF1.784
S'0.0372118325797'
p961
sF3.091
S'0.000997418169686'
p962
sF2.172
S'0.0149278314584'
p963
sF4.615
S'1.96547658151e-06'
p964
sF1.565
S'0.0587914546551'
p965
sF2.727
S'0.00319565195419'
p966
sF2.306
S'0.0105553161678'
p967
sF2.106
S'0.0176021761745'
p968
sF4.859
S'5.89900668518e-07'
p969
sF1.546
S'0.0610522839106'
p970
sF1.965
S'0.0247071187725'
p971
sF3.246
S'0.000585194197365'
p972
sF1.688
S'0.0457056144706'
p973
sF2.683
S'0.00364824951681'
p974
sF2.951
S'0.00158373458524'
p975
sF1.039
S'0.149402368133'
p976
sF1.457
S'0.0725581901096'
p977
sF1.755
S'0.0396296538791'
p978
sF4.545
S'2.7467627053e-06'
p979
sF3.742
S'9.12807576759e-05'
p980
sF2.396
S'0.00828754515938'
p981
sF3.4
S'0.000336929265677'
p982
sF1.379
S'0.0839473769493'
p983
sF1.386
S'0.0828734517451'
p984
sF1.771
S'0.0382803508617'
p985
sF4.56
S'2.55768103945e-06'
p986
sF2.938
S'0.00165168511843'
p987
sF1.226
S'0.110099337516'
p988
sF4.089
S'2.16618426582e-05'
p989
sF3.791
S'7.50209771143e-05'
p990
sF2.18
S'0.014628730776'
p991
sF1.903
S'0.0285202726165'
p992
sF3.088
S'0.00100754235466'
p993
sF2.888
S'0.00193849936235'
p994
sF2.652
S'0.00400082709486'
p995
sF2.559
S'0.00524868707014'
p996
sF4.458
S'4.13639510534e-06'
p997
sF3.334
S'0.000428033288858'
p998
sF3.022
S'0.00125555274103'
p999
sF3.925
S'4.33648689805e-05'
p1000
sF3.66
S'0.000126107624138'
p1001
sF1.848
S'0.0323011714171'
p1002
sF4.768
S'9.30318919742e-07'
p1003
sF1.181
S'0.118801361652'
p1004
sF4.97
S'3.34764508274e-07'
p1005
sF1.568
S'0.0584405661742'
p1006
sF3.82
S'6.67258370297e-05'
p1007
sF4.147
S'1.68430031261e-05'
p1008
sF2.025
S'0.0214336821142'
p1009
sF4.078
S'2.27123832907e-05'
p1010
sF2.734
S'0.00312850222097'
p1011
sF2.23
S'0.0128737214386'
p1012
sF1.505
S'0.0661620383688'
p1013
sF4.443
S'4.43565829158e-06'
p1014
sF2.574
S'0.00502651366125'
p1015
sF4.245
S'1.09296710525e-05'
p1016
sF3.58
S'0.000171797103746'
p1017
sF3.854
S'5.81017973618e-05'
p1018
sF1.746
S'0.0404054759198'
p1019
sF3.447
S'0.000283424291067'
p1020
sF1.513
S'0.0651398294279'
p1021
sF3.208
S'0.000668307492527'
p1022
sF2.385
S'0.00853956067668'
p1023
sF3.998
S'3.19399756077e-05'
p1024
sF1.37
S'0.085343450822'
p1025
sF2.14
S'0.0161773833722'
p1026
sF3.741
S'9.16447604328e-05'
p1027
sF3.814
S'6.83677336823e-05'
p1028
sF4.057
S'2.48535409968e-05'
p1029
sF1.365
S'0.0861265250097'
p1030
sF3.755
S'8.66707391377e-05'
p1031
sF4.533
S'2.90759075598e-06'
p1032
sF1.554
S'0.0600922083144'
p1033
sF1.422
S'0.0775131254712'
p1034
sF4.133
S'1.79029363155e-05'
p1035
sF3.359
S'0.000391125337071'
p1036
sF4.949
S'3.7297873518e-07'
p1037
sF1.718
S'0.0428983076379'
p1038
sF1.488
S'0.0683754468162'
p1039
sF3.763
S'8.3943600884e-05'
p1040
sF1.423
S'0.0773680776248'
p1041
sF3.919
S'4.44585573268e-05'
p1042
sF2.5
S'0.00620966532578'
p1043
sF2.212
S'0.013483332467'
p1044
sF3.573
S'0.000176457380537'
p1045
sF1.334
S'0.0911019282654'
p1046
sF1.922
S'0.027302878876'
p1047
sF3.671
S'0.000120801670119'
p1048
sF1.352
S'0.0881876576416'
p1049
sF4.736
S'1.08988793412e-06'
p1050
sF2.557
S'0.00527896087614'
p1051
sF2.426
S'0.00763313513965'
p1052
sF2.191
S'0.0142258962256'
p1053
sF1.908
S'0.0281956081385'
p1054
sF1.108
S'0.13393090795'
p1055
sF1.547
S'0.060931622824'
p1056
sF3.99
S'3.30366476294e-05'
p1057
sF2.27
S'0.0116037915219'
p1058
sF4.479
S'3.7496766847e-06'
p1059
sF1.316
S'0.0940870213346'
p1060
sF2.516
S'0.0059347591408'
p1061
sF3.074
S'0.00105604716279'
p1062
sF4.34
S'7.1241358015e-06'
p1063
sF1.439
S'0.075075261376'
p1064
sF2.185
S'0.0144444232954'
p1065
sF4.966
S'3.41739772251e-07'
p1066
sF3.093
S'0.000990720676178'
p1067
sF2.672
S'0.00377003242216'
p1068
sF4.376
S'6.04385067998e-06'
p1069
sF1.144
S'0.1263118185'
p1070
sF3.39
S'0.000349463118338'
p1071
sF2.762
S'0.00287242392188'
p1072
sF3.813
S'6.86450562864e-05'
p1073
sF1.815
S'0.0347619547432'
p1074
sF4.515
S'3.16583829106e-06'
p1075
sF2.163
S'0.0152705898081'
p1076
sF2.279
S'0.0113335326504'
p1077
sF2.984
S'0.00142253385881'
p1078
sF3.266
S'0.000545391247115'
p1079
sF3.183
S'0.000728788071317'
p1080
sF4.123
S'1.8698484925e-05'
p1081
sF2.689
S'0.00358332096017'
p1082
sF1.707
S'0.0439110261978'
p1083
sF2.721
S'0.00325423807634'
p1084
sF4.169
S'1.52969494584e-05'
p1085
sF2.896
S'0.0018897620003'
p1086
sF3.298
S'0.000486880671962'
p1087
sF1.64
S'0.0505025834741'
p1088
sF1.915
S'0.0277462518053'
p1089
sF1.615
S'0.0531553474359'
p1090
sF4.055
S'2.50671513937e-05'
p1091
sF4.155
S'1.62643771142e-05'
p1092
sF3.142
S'0.000838990179338'
p1093
sF4.465
S'4.00343758968e-06'
p1094
sF3.011
S'0.00130194426302'
p1095
sF2.394
S'0.00833287439561'
p1096
sF1.87
S'0.0307419089295'
p1097
sF1.665
S'0.0479563779117'
p1098
sF1.752
S'0.0398869039595'
p1099
sF2.599
S'0.00467478866386'
p1100
sF2.483
S'0.00651405438125'
p1101
sF3.388
S'0.000352021321632'
p1102
sF1.83
S'0.0336249694196'
p1103
sF3.424
S'0.000308533104755'
p1104
sF3.137
S'0.000853430636013'
p1105
sF3.714
S'0.000102004396466'
p1106
sF1.595
S'0.0553561178925'
p1107
sF3.101
S'0.000964341453047'
p1108
sF3.503
S'0.000230024731618'
p1109
sF1.093
S'0.137196899874'
p1110
sF4.875
S'5.44042275575e-07'
p1111
sF1.8
S'0.0359303191129'
p1112
sF1.479
S'0.0695701574059'
p1113
sF3.558
S'0.000186844656849'
p1114
sF3.263
S'0.000551197599347'
p1115
sF4.834
S'6.69082927976e-07'
p1116
sF3.977
S'3.4895082512e-05'
p1117
sF3.793
S'7.44190782479e-05'
p1118
sF1.828
S'0.0337747758231'
p1119
sF1.138
S'0.127560241168'
p1120
sF1.402
S'0.0804576233476'
p1121
sF4.872
S'5.52370845136e-07'
p1122
sF1.574
S'0.0577437247193'
p1123
sF3.468
S'0.000262173644298'
p1124
sF4.291
S'8.89351574096e-06'
p1125
sF2.173
S'0.0148901586424'
p1126
sF2.828
S'0.00234199032682'
p1127
sF3.378
S'0.000365075403318'
p1128
sF2.144
S'0.0160164433924'
p1129
sF1.883
S'0.0298501839805'
p1130
sF1.626
S'0.0519748276803'
p1131
sF1.072
S'0.14186001607'
p1132
sF4.474
S'3.83848707441e-06'
p1133
sF1.551
S'0.0604508419803'
p1134
sF2.409
S'0.00799814898917'
p1135
sF1.382
S'0.083485850553'
p1136
sF1.942
S'0.0260685501476'
p1137
sF2.078
S'0.018854679573'
p1138
sF1.837
S'0.0331049476935'
p1139
sF2.753
S'0.00295259481223'
p1140
sF3.356
S'0.00039539284384'
p1141
sF4.548
S'2.70790678069e-06'
p1142
sF2.533
S'0.00565454764391'
p1143
sF3.865
S'5.55445998169e-05'
p1144
sF2.606
S'0.00458032308188'
p1145
sF2.401
S'0.00817516824998'
p1146
sF3.06
S'0.00110668495741'
p1147
sF2.443
S'0.00728286864083'
p1148
sF2.131
S'0.0165445710916'
p1149
sF2.238
S'0.0126105275632'
p1150
sF4.802
S'7.85443466109e-07'
p1151
sF4.934
S'4.02812196791e-07'
p1152
sF4.724
S'1.15625207793e-06'
p1153
sF4.212
S'1.26559772186e-05'
p1154
sF3.148
S'0.000821958466769'
p1155
sF2.193
S'0.0141536895457'
p1156
sF2.595
S'0.0047295459498'
p1157
sF4.395
S'5.5386376875e-06'
p1158
sF4.073
S'2.32057121812e-05'
p1159
sF4.42
S'4.93504506253e-06'
p1160
sF2.901
S'0.00185986939179'
p1161
sF2.77
S'0.00280281463277'
p1162
sF3.463
S'0.000267094197686'
p1163
sF4.958
S'3.56112816942e-07'
p1164
sF1.984
S'0.0236279199658'
p1165
sF4.531
S'2.9352569286e-06'
p1166
sF1.028
S'0.151974913845'
p1167
sF3.65
S'0.00013112015442'
p1168
sF3.152
S'0.000810781366625'
p1169
sF4.442
S'4.45632800855e-06'
p1170
sF3.593
S'0.000163446293987'
p1171
sF3.172
S'0.000756965035027'
p1172
sF2.86
S'0.0021182050404'
p1173
sF2.343
S'0.00956469154804'
p1174
sF3.327
S'0.000438931867432'
p1175
sF1.611
S'0.0535898612228'
p1176
sF2.841
S'0.0022486156193'
p1177
sF4.876
S'5.41293040142e-07'
p1178
sF1.442
S'0.074651186806'
p1179
sF3.534
S'0.000204660539285'
p1180
sF2.312
S'0.0103888416566'
p1181
sF1.834
S'0.0333269970754'
p1182
sF2.517
S'0.00591794145863'
p1183
sF2.071
S'0.019179398028'
p1184
sF3.722
S'9.882551154e-05'
p1185
sF3.683
S'0.000115252579755'
p1186
sF3.552
S'0.000191157430225'
p1187
sF1.957
S'0.025173734178'
p1188
sF4.244
S'1.09785175467e-05'
p1189
sF1.321
S'0.0932506821095'
p1190
sF3.798
S'7.29341618135e-05'
p1191
sF1.947
S'0.0257673673353'
p1192
sF1.759
S'0.0392887542816'
p1193
sF1.075
S'0.141187364165'
p1194
sF1.498
S'0.0670666252287'
p1195
sF3.427
S'0.000305144534988'
p1196
sF2.155
S'0.0155809171093'
p1197
sF1.896
S'0.028980022263'
p1198
sF2.632
S'0.00424419314391'
p1199
sF4.159
S'1.59821949769e-05'
p1200
sF3.337
S'0.000423439740875'
p1201
sF3.888
S'5.05368133567e-05'
p1202
sF3.757
S'8.5981248313e-05'
p1203
sF4.389
S'5.69365346906e-06'
p1204
sF1.076
S'0.1409636282'
p1205
sF3.709
S'0.000104039713995'
p1206
sF1.214
S'0.112373862078'
p1207
sF1.739
S'0.0410173814617'
p1208
sF3.601
S'0.000158497788432'
p1209
sF4.351
S'6.7759026147e-06'
p1210
sF1.112
S'0.133069075169'
p1211
sF2.616
S'0.00444832787936'
p1212
sF3.296
S'0.000490360076159'
p1213
sF2.108
S'0.0175154947163'
p1214
sF3.514
S'0.000220706406431'
p1215
sF1.419
S'0.0779495080318'
p1216
sF3.962
S'3.71622702073e-05'
p1217
sF4.23
S'1.16845655947e-05'
p1218
sF4.825
S'7.00016337661e-07'
p1219
sF1.157
S'0.123636180174'
p1220
sF1.624
S'0.0521879042748'
p1221
sF3.001
S'0.00134547282508'
p1222
sF2.492
S'0.00635130187077'
p1223
sF3.206
S'0.00067296994212'
p1224
sF1.594
S'0.0554680174527'
p1225
sF1.962
S'0.0248812421267'
p1226
sF2.41
S'0.00797626026073'
p1227
sF4.13
S'1.81381617181e-05'
p1228
sF1.103
S'0.135013582576'
p1229
sF4.164
S'1.5636005651e-05'
p1230
sF4.54
S'2.81271141172e-06'
p1231
sF1.358
S'0.0872318420783'
p1232
sF2.313
S'0.0103613195708'
p1233
sF1.278
S'0.100624713134'
p1234
sF1.396
S'0.0813572475748'
p1235
sF2.91
S'0.00180714378081'
p1236
sF1.501
S'0.0666777807844'
p1237
sF4.517
S'3.13609527239e-06'
p1238
sF1.425
S'0.0770786005521'
p1239
sF1.394
S'0.0816588023225'
p1240
sF2.012
S'0.0221099684949'
p1241
sF3.616
S'0.00014959518711'
p1242
sF1.427
S'0.0767899473142'
p1243
sF2.653
S'0.00398899354303'
p1244
sF2.514
S'0.00596852169464'
p1245
sF2.821
S'0.00239371014385'
p1246
sF2.44
S'0.00734363095535'
p1247
sF4.406
S'5.26484813425e-06'
p1248
sF1.548
S'0.0608111482557'
p1249
sF3.976
S'3.50420625111e-05'
p1250
sF1.7
S'0.0445654627585'
p1251
sF3.396
S'0.000341891797893'
p1252
sF2.98
S'0.00144124191734'
p1253
sF4.312
S'8.08922169965e-06'
p1254
sF1.671
S'0.0473608389055'
p1255
sF3.557
S'0.000187557078103'
p1256
sF4.139
S'1.7441147511e-05'
p1257
sF4.486
S'3.62863705265e-06'
p1258
sF3.095
S'0.00098406448547'
p1259
sF1.566
S'0.0586743085776'
p1260
sF1.01
S'0.156247645021'
p1261
sF3.886
S'5.0954753012e-05'
p1262
sF2.946
S'0.00160956200083'
p1263
sF4.375
S'6.07162391133e-06'
p1264
sF4.178
S'1.47041827649e-05'
p1265
sF2.939
S'0.0016463653704'
p1266
sF1.015
S'0.155052913752'
p1267
sF1.616
S'0.0530471565978'
p1268
sF4.219
S'1.2269413665e-05'
p1269
sF3.341
S'0.00041738611523'
p1270
sF3.851
S'5.88182494523e-05'
p1271
sF2.913
S'0.00178987300673'
p1272
sF3.937
S'4.12533034922e-05'
p1273
sF3.806
S'7.06161909675e-05'
p1274
sF2.05
S'0.0201822154057'
p1275
sF4.818
S'7.25021854372e-07'
p1276
sF3.729
S'9.61205760463e-05'
p1277
sF4.328
S'7.52347348072e-06'
p1278
sF1.829
S'0.0336998041224'
p1279
sF2.502
S'0.00617469624369'
p1280
sF2.224
S'0.0130742221218'
p1281
sF3.896
S'4.88971941659e-05'
p1282
sF4.953
S'3.65389873828e-07'
p1283
sF2.255
S'0.0120666643911'
p1284
sF3.154
S'0.000805245429191'
p1285
sF2.46
S'0.00694685078862'
p1286
sF4.551
S'2.66957740562e-06'
p1287
sF3.165
S'0.000775414755598'
p1288
sF3.87
S'5.44176766337e-05'
p1289
sF3.632
S'0.000140616560915'
p1290
sF2.403
S'0.00813059371545'
p1291
sF3.575
S'0.000175113948061'
p1292
sF4.703
S'1.28183209758e-06'
p1293
sF1.222
S'0.110853813493'
p1294
sF1.128
S'0.12965995957'
p1295
sF2.228
S'0.0129402575007'
p1296
sF1.333
S'0.0912659019004'
p1297
sF4.205
S'1.30541078486e-05'
p1298
sF3.49
S'0.000241510273568'
p1299
sF1.593
S'0.0555800955231'
p1300
sF3.706
S'0.000105279149068'
p1301
sF4.827
S'6.93025608118e-07'
p1302
sF4.112
S'1.9612314967e-05'
p1303
sF1.159
S'0.123228092523'
p1304
sF3.303
S'0.000478281939204'
p1305
sF3.07
S'0.00107029385468'
p1306
sF2.122
S'0.0169188690216'
p1307
sF1.716
S'0.0430810212107'
p1308
sF1.849
S'0.0322289063591'
p1309
sF4.786
S'8.50690279772e-07'
p1310
sF2.277
S'0.0113931128099'
p1311
sF1.038
S'0.149635027543'
p1312
sF1.614
S'0.0532637131434'
p1313
sF4.237
S'1.1326306806e-05'
p1314
sF3.036
S'0.00119869682179'
p1315
sF2.854
S'0.00215862656615'
p1316
sF1.993
S'0.0231307235413'
p1317
sF4.794
S'8.17441366495e-07'
p1318
sF2.981
S'0.00143654396402'
p1319
sF4.672
S'1.49140479888e-06'
p1320
sF3.239
S'0.00059974786734'
p1321
sF1.673
S'0.0471636480192'
p1322
sF1.791
S'0.0366466475003'
p1323
sF1.935
S'0.0264951478415'
p1324
sF2.444
S'0.00726271326934'
p1325
sF4.196
S'1.35835122748e-05'
p1326
sF1.783
S'0.0372931516627'
p1327
sF2.236
S'0.0126758855791'
p1328
sF3.275
S'0.000528309868123'
p1329
sF3.144
S'0.000833277198612'
p1330
sF1.884
S'0.0297824877346'
p1331
sF4.026
S'2.8366844301e-05'
p1332
sF2.944
S'0.00161999999782'
p1333
sF3.389
S'0.00035074005255'
p1334
sF4.537
S'2.85300532965e-06'
p1335
sF2.825
S'0.0023640308017'
p1336
sF2.811
S'0.00246938929534'
p1337
sF3.149
S'0.000819150976358'
p1338
sF3.565
S'0.000181928094263'
p1339
sF2.354
S'0.00928630554278'
p1340
sF2.304
S'0.0106113217936'
p1341
sF3.559
S'0.000186134765886'
p1342
sF2.318
S'0.0102246605291'
p1343
sF3.804
S'7.11890896901e-05'
p1344
sF4.969
S'3.36495350086e-07'
p1345
sF4.836
S'6.6238960516e-07'
p1346
sF3.811
S'6.92028836111e-05'
p1347
sF2.967
S'0.00150360479542'
p1348
sF3.48
S'0.000250706891281'
p1349
sF3.349
S'0.00040551897853'
p1350
sF1.825
S'0.0340005146698'
p1351
sF4.08
S'2.25178503885e-05'
p1352
sF4.052
S'2.53908325595e-05'
p1353
sF4.385
S'5.79928892265e-06'
p1354
sF3.926
S'4.31850775427e-05'
p1355
sF4.795
S'8.13374154237e-07'
p1356
sF1.943
S'0.0260080791581'
p1357
sF3.193
S'0.000704014732705'
p1358
sF3.214
S'0.000654498366488'
p1359
sF3.595
S'0.000162195788433'
p1360
sF4.941
S'3.88614542217e-07'
p1361
sF2.987
S'0.00140864861226'
p1362
sF3.419
S'0.00031425863226'
p1363
sF3.901
S'4.78980754543e-05'
p1364
sF3.77
S'8.16237737027e-05'
p1365
sF2.624
S'0.0043451892576'
p1366
sF4.652
S'1.64365539745e-06'
p1367
sF4.754
S'9.97155182874e-07'
p1368
sF1.255
S'0.104739379983'
p1369
sF4.574
S'2.3924991847e-06'
p1370
sF2.006
S'0.0224281239987'
p1371
sF2.779
S'0.00272632625511'
p1372
sF1.96
S'0.0249978951482'
p1373
sF1.485
S'0.0687719120534'
p1374
sF1.841
S'0.0328107793517'
p1375
sF3.86
S'5.66935125343e-05'
p1376
sF3.218
S'0.000645439089309'
p1377
sF2.995
S'0.00137222420873'
p1378
sF2.829
S'0.00233468494792'
p1379
sF2.252
S'0.012161136008'
p1380
sF1.294
S'0.0978327104039'
p1381
sF1.307
S'0.0956063557422'
p1382
sF3.975
S'3.5189628066e-05'
p1383
sF4.95
S'3.71067407963e-07'
p1384
sF4.294
S'8.77412367816e-06'
p1385
sF2.367
S'0.00896646640596'
p1386
sF2.416
S'0.00784603067345'
p1387
sF4.207
S'1.29391570744e-05'
p1388
sF4.804
S'7.77634142273e-07'
p1389
sF1.74
S'0.0409295089788'
p1390
sF2.482
S'0.00653236376745'
p1391
sF2.288
S'0.0110687605595'
p1392
sF2.788
S'0.00265172719024'
p1393
sF2.493
S'0.00633344231258'
p1394
sF1.221
S'0.111043009896'
p1395
sF4.704
S'1.27556623175e-06'
p1396
sF2.198
S'0.0139745529691'
p1397
sF1.297
S'0.0973155933991'
p1398
sF1.344
S'0.0894741934514'
p1399
sF1.679
S'0.0465760218797'
p1400
sF4.105
S'2.02157440172e-05'
p1401
sF2.572
S'0.00505564458736'
p1402
sF1.266
S'0.102756541127'
p1403
sF2.894
S'0.00190184081004'
p1404
sF4.019
S'2.92228354551e-05'
p1405
sF1.467
S'0.0711880276738'
p1406
sF2.747
S'0.00300715672432'
p1407
sF1.963
S'0.0248230870174'
p1408
sF1.878
S'0.0301905825435'
p1409
sF3.161
S'0.000786142492378'
p1410
sF2.903
S'0.0018480331855'
p1411
sF4.483
S'3.68004646909e-06'
p1412
sF3.343
S'0.000414389499322'
p1413
sF2.608
S'0.00455364771922'
p1414
sF4.893
S'4.96552032539e-07'
p1415
sF1.843
S'0.032664505242'
p1416
sF3.313
S'0.000461504899509'
p1417
sF2.993
S'0.0013812487462'
p1418
sF3.364
S'0.00038410771614'
p1419
sF2.662
S'0.00388389392346'
p1420
sF1.859
S'0.0315135691918'
p1421
sF1.765
S'0.0387818828566'
p1422
sF1.966
S'0.0246493053056'
p1423
sF3.108
S'0.000941790340413'
p1424
sF1.952
S'0.0254691023062'
p1425
sF1.735
S'0.0413704026051'
p1426
sF2.777
S'0.00274315894876'
p1427
sF2.955
S'0.00156334525465'
p1428
sF2.952
S'0.00157861465434'
p1429
sF4.713
S'1.2204809851e-06'
p1430
sF3.354
S'0.000398261813999'
p1431
sF1.877
S'0.0302590469315'
p1432
sF4.48
S'3.73215196051e-06'
p1433
sF3.529
S'0.000208566565261'
p1434
sF2.273
S'0.0115130899698'
p1435
sF2.708
S'0.00338450112046'
p1436
sF3.198
S'0.000691921401892'
p1437
sF3.067
S'0.00108109428594'
p1438
sF1.693
S'0.0452277336039'
p1439
sF1.061
S'0.144344950586'
p1440
sF2.49
S'0.00638715476494'
p1441
sF4.128
S'1.82966057437e-05'
p1442
sF3.644
S'0.000134216709305'
p1443
sF3.444
S'0.000286587851101'
p1444
sF1.862
S'0.0313015451162'
p1445
sF3.023
S'0.00125141121652'
p1446
sF3.858
S'5.71593240225e-05'
p1447
sF3.219
S'0.000643192426294'
p1448
sF2.116
S'0.0171724037858'
p1449
sF2.182
S'0.0145547663644'
p1450
sF3.578
S'0.000173116725829'
p1451
sF2.387
S'0.00849324563844'
p1452
sF1.121
S'0.131143931206'
p1453
sF2.851
S'0.00217909847376'
p1454
sF3.592
S'0.00016407492496'
p1455
sF4.41
S'5.16853095722e-06'
p1456
sF1.446
S'0.0740886009078'
p1457
sF4.492
S'3.52787118129e-06'
p1458
sF4.343
S'7.02750670695e-06'
p1459
sF4.048
S'2.5828573228e-05'
p1460
sF1.043
S'0.14847414638'
p1461
sF1.447
S'0.0739484617846'
p1462
sF4.424
S'4.84450098694e-06'
p1463
sF4.021
S'2.89758025043e-05'
p1464
sF4.722
S'1.16768341278e-06'
p1465
sF3.98
S'3.44576341151e-05'
p1466
sF2.585
S'0.00486894987034'
p1467
sF4.451
S'4.27356709243e-06'
p1468
sF2.529
S'0.00571940135993'
p1469
sF1.166
S'0.121807222738'
p1470
sF2.542
S'0.00551100867563'
p1471
sF3.776
S'7.96834951082e-05'
p1472
sF4.757
S'9.82455847296e-07'
p1473
sF2.057
S'0.0198431129342'
p1474
sF3.693
S'0.000110812011545'
p1475
sF3.797
S'7.32288946948e-05'
p1476
sF2.452
S'0.00710323309731'
p1477
sF3.157
S'0.000797006731631'
p1478
sF3.939
S'4.09109651258e-05'
p1479
sF1.512
S'0.0652669312704'
p1480
sF4.753
S'1.00210173998e-06'
p1481
sF1.149
S'0.12527799033'
p1482
sF1.173
S'0.120397902847'
p1483
sF1.045
S'0.148011484761'
p1484
sF4.681
S'1.42739469712e-06'
p1485
sF4.456
S'4.17515158076e-06'
p1486
sF4.091
S'2.14758565792e-05'
p1487
sF1.854
S'0.0318695799969'
p1488
sF2.862
S'0.00210488453478'
p1489
sF1.203
S'0.114488160276'
p1490
sF2.567
S'0.00512913062095'
p1491
sF4.877
S'5.38557177351e-07'
p1492
sF4.64
S'1.74204589034e-06'
p1493
sF4.05
S'2.5608816474e-05'
p1494
sF1.579
S'0.0571680285254'
p1495
sF4.46
S'4.09798264664e-06'
p1496
sF1.079
S'0.140293863827'
p1497
sF1.93
S'0.0268034188771'
p1498
sF2.536
S'0.00560633670502'
p1499
sF2.115
S'0.0172149736574'
p1500
sF1.534
S'0.0625148263909'
p1501
sF1.702
S'0.0443776841336'
p1502
sF1.592
S'0.055692352276'
p1503
sF2.67
S'0.00379256234769'
p1504
sF2.026
S'0.0213823923219'
p1505
sF3.288
S'0.000504509197412'
p1506
sF4.77
S'9.21129596167e-07'
p1507
sF2.231
S'0.0128405645072'
p1508
sF4.18
S'1.45754547909e-05'
p1509
sF4.28
S'9.3446656702e-06'
p1510
sF4.59
S'2.21623004812e-06'
p1511
sF3.099
S'0.000970875100535'
p1512
sF1.449
S'0.0736687912889'
p1513
sF3.438
S'0.000293013849269'
p1514
sF1.892
S'0.0292454904026'
p1515
sF3.403
S'0.000333251402691'
p1516
sF1.46
S'0.0721450369659'
p1517
sF3.072
S'0.00106314862589'
p1518
sF4.758
S'9.77602494321e-07'
p1519
sF4.729
S'1.12814191893e-06'
p1520
sF4.239
S'1.12258829256e-05'
p1521
sF1.97
S'0.0244191852802'
p1522
sF3.247
S'0.000583141948872'
p1523
sF2.436
S'0.00742534226349'
p1524
sF3.649
S'0.000131631552043'
p1525
sF3.228
S'0.00062329487065'
p1526
sF3.569
S'0.00017917321278'
p1527
sF2.641
S'0.00413308596814'
p1528
sF3.23
S'0.000618951090387'
p1529
sF3.346
S'0.000409931978558'
p1530
sF3.066
S'0.00108471657431'
p1531
sF3.362
S'0.000386900617989'
p1532
sF3.703
S'0.000106532441057'
p1533
sF3.031
S'0.00121872623948'
p1534
sF3.282
S'0.000515368025543'
p1535
sF2.217
S'0.0133115457655'
p1536
sF3.739
S'9.23768635466e-05'
p1537
sF3.369
S'0.000377207144206'
p1538
sF3.608
S'0.000154283245049'
p1539
sF2.813
S'0.00245408255804'
p1540
sF1.821
S'0.0343034284332'
p1541
sF4.353
S'6.71435751742e-06'
p1542
sF1.985
S'0.0235722357491'
p1543
sF3.783
S'7.74747072328e-05'
p1544
sF2.551
S'0.00537071629069'
p1545
sF1.252
S'0.105284931982'
p1546
sF1.456
S'0.072696309805'
p1547
sF4.779
S'8.80845972059e-07'
p1548
sF3.392
S'0.000346922200991'
p1549
sF3.452
S'0.000278223863294'
p1550
sF4.189
S'1.40093199992e-05'
p1551
sF1.535
S'0.0623919140191'
p1552
sF1.714
S'0.0432643629337'
p1553
sF1.397
S'0.0812067855598'
p1554
sF1.39
S'0.0822644386777'
p1555
sF2.023
S'0.021536573759'
p1556
sF2.013
S'0.0220573146771'
p1557
sF3.698
S'0.000108652444591'
p1558
sF3.567
S'0.000180545740213'
p1559
sF4.271
S'9.72992041714e-06'
p1560
sF4.148
S'1.67696199592e-05'
p1561
sF1.025
S'0.152681593833'
p1562
sF3.236
S'0.000606086920826'
p1563
sF2.016
S'0.0218999878951'
p1564
sF2.127
S'0.0167100415966'
p1565
sF3.944
S'4.00668288438e-05'
p1566
sF1.481
S'0.069303286745'
p1567
sF3.047
S'0.00115568854889'
p1568
sF4.763
S'9.5367920634e-07'
p1569
sF4.501
S'3.38172529581e-06'
p1570
sF3.988
S'3.33163318521e-05'
p1571
sF1.292
S'0.0981785722956'
p1572
sF4.182
S'1.44477984965e-05'
p1573
sF3.884
S'5.13759535486e-05'
p1574
sF3.657
S'0.000127592190257'
p1575
sF1.371
S'0.0851874780182'
p1576
sF4.558
S'2.58215187451e-06'
p1577
sF4.228
S'1.17888896029e-05'
p1578
sF4.993
S'2.97242787863e-07'
p1579
sF4.968
S'3.38234813855e-07'
p1580
sF3.386
S'0.000354596918168'
p1581
sF4.24
S'1.11759893321e-05'
p1582
sF4.087
S'2.18493559671e-05'
p1583
sF4.378
S'5.98866752564e-06'
p1584
sF2.205
S'0.0137270472663'
p1585
sF2.943
S'0.00162524209131'
p1586
sF4.101
S'2.05684280068e-05'
p1587
sF4.927
S'4.17508774227e-07'
p1588
sF2.78
S'0.0027179449227'
p1589
sF2.008
S'0.0223216458347'
p1590
sF2.33
S'0.00990307555916'
p1591
sF3.485
S'0.000246068520755'
p1592
sF1.185
S'0.118008723454'
p1593
sF2.035
S'0.0209254364902'
p1594
sF2.24
S'0.0125454614359'
p1595
sF4.198
S'1.34641315834e-05'
p1596
sF1.241
S'0.107302874438'
p1597
sF1.813
S'0.0349159106602'
p1598
sF1.561
S'0.0592618754342'
p1599
sF4.676
S'1.4626230265e-06'
p1600
sF2.7
S'0.00346697380304'
p1601
sF2.59
S'0.00479879659713'
p1602
sF4.014
S'2.98491730877e-05'
p1603
sF1.268
S'0.102398975282'
p1604
sF3.006
S'0.0013235449889'
p1605
sF2.69
S'0.0035726009524'
p1606
sF4.884
S'5.19775371308e-07'
p1607
sF2.395
S'0.00831018263663'
p1608
sF2.544
S'0.00547955422973'
p1609
sF2.6
S'0.00466118802372'
p1610
sF1.453
S'0.0731118770024'
p1611
sF3.069
S'0.00107388295646'
p1612
sF3.252
S'0.000572980109251'
p1613
sF4.856
S'5.98903504723e-07'
p1614
sF4.116
S'1.92752151759e-05'
p1615
sF1.069
S'0.142534834704'
p1616
sF2.921
S'0.00174454913738'
p1617
sF2.79
S'0.0026354020779'
p1618
sF4.194
S'1.37038990241e-05'
p1619
sF2.975
S'0.00146494273923'
p1620
sF1.473
S'0.0703755178894'
p1621
sF4.653
S'1.63570123985e-06'
p1622
sF1.448
S'0.073808525296'
p1623
sF2.634
S'0.00421927439683'
p1624
sF3.542
S'0.000198552737102'
p1625
sF2.615
S'0.00446137277429'
p1626
sF3.766
S'8.29418955829e-05'
p1627
sF3.857
S'5.73935811806e-05'
p1628
sF3.211
S'0.000661369673962'
p1629
sF2.357
S'0.00921162342957'
p1630
sF3.482
S'0.000248841846098'
p1631
sF4.221
S'1.21610468392e-05'
p1632
sF3.17
S'0.000762194688067'
p1633
sF2.749
S'0.00298886931116'
p1634
sF3.941
S'4.05713131048e-05'
p1635
sF4.936
S'3.98705534526e-07'
p1636
sF3.788
S'7.59324247998e-05'
p1637
sF1.182
S'0.118602850429'
p1638
sF4.346
S'6.93212842582e-06'
p1639
sF3.326
S'0.000440509643085'
p1640
sF4.756
S'9.8733234267e-07'
p1641
sF1.699
S'0.0446595918073'
p1642
sF4.166
S'1.54995350205e-05'
p1643
sF3.903
S'4.75038513358e-05'
p1644
sF1.833
S'0.0334012855425'
p1645
sF3.096
S'0.000980751807295'
p1646
sF2.757
S'0.00291671757621'
p1647
sF3.572
S'0.000177132705762'
p1648
sF1.766
S'0.0386979244338'
p1649
sF2.469
S'0.00677456092329'
p1650
sF1.967
S'0.0245916053883'
p1651
sF3.747
S'8.94810430755e-05'
p1652
sF3.674
S'0.000119391365684'
p1653
sF3.728
S'9.65026890696e-05'
p1654
sF3.416
S'0.000317741234952'
p1655
sF1.742
S'0.0407542221306'
p1656
sF3.879
S'5.2443377459e-05'
p1657
sF1.411
S'0.0791223070102'
p1658
sF2.074
S'0.01903965543'
p1659
sF3.993
S'3.26212842343e-05'
p1660
sF3.862
S'5.62312832643e-05'
p1661
sF1.858
S'0.031584507154'
p1662
sF4.861
S'5.83971268827e-07'
p1663
sF3.662
S'0.000125126929856'
p1664
sF3.531
S'0.000206995873968'
p1665
sF1.107
S'0.134146964165'
p1666
sF2.087
S'0.0184440672733'
p1667
sF4.199
S'1.34048160277e-05'
p1668
sF1.308
S'0.0954366546429'
p1669
sF2.601
S'0.00464762269931'
p1670
sF1.792
S'0.0365664830052'
p1671
sF1.41
S'0.0792698414534'
p1672
sF3.584
S'0.000169186041853'
p1673
sF2.181
S'0.0145917082411'
p1674
sF2.289
S'0.011039676193'
p1675
sF4.429
S'4.73355114989e-06'
p1676
sF3.952
S'3.87503703327e-05'
p1677
sF2.494
S'0.0063156272228'
p1678
sF1.476
S'0.0699719461157'
p1679
sF4.535
S'2.88017427125e-06'
p1680
sF2.344
S'0.00953908569888'
p1681
sF1.353
S'0.0880278151896'
p1682
sF2.565
S'0.00515879025081'
p1683
sF1.94
S'0.0261898449405'
p1684
sF1.375
S'0.0845657223513'
p1685
sF3.188
S'0.000716302682553'
p1686
sF2.424
S'0.00767530274328'
p1687
sF1.42
S'0.0778038405265'
p1688
sF2.459
S'0.00696623088988'
p1689
sF3.736
S'9.34853336426e-05'
p1690
sF1.645
S'0.0499849055391'
p1691
sF3.848
S'5.95430267053e-05'
p1692
sF2.128
S'0.01666854179'
p1693
sF1.874
S'0.0304652125571'
p1694
sF4.075
S'2.30071735285e-05'
p1695
sF2.806
S'0.00250803461637'
p1696
sF2.042
S'0.0205757656651'
p1697
sF4.07
S'2.35065688686e-05'
p1698
sF4.921
S'4.30515653109e-07'
p1699
sF1.398
S'0.0810565335935'
p1700
sF4.024
S'2.8608958434e-05'
p1701
sF1.573
S'0.0578594091064'
p1702
sF2.88
S'0.00198837585489'
p1703
sF4.62
S'1.91870021997e-06'
p1704
sF4.556
S'2.60684680551e-06'
p1705
sF3.003
S'0.00133666215707'
p1706
sF1.621
S'0.052508819349'
p1707
sF2.418
S'0.0078030384077'
p1708
sF4.153
S'1.64072369406e-05'
p1709
sF4.444
S'4.41508020646e-06'
p1710
sF1.245
S'0.106565875118'
p1711
sF1.85
S'0.0321567747956'
p1712
sF3.126
S'0.000886007758939'
p1713
sF3.139
S'0.000847627239216'
p1714
sF4.042
S'2.64986163268e-05'
p1715
sF2.839
S'0.00226275784573'
p1716
sF4.292
S'8.85354744154e-06'
p1717
sF1.666
S'0.0478567072175'
p1718
sF2.631
S'0.0042567017997'
p1719
sF2.018
S'0.021795630663'
p1720
sF2.345
S'0.00951353979955'
p1721
sF4.434
S'4.62503128672e-06'
p1722
sF4.854
S'6.04978677729e-07'
p1723
sF1.046
S'0.147780516195'
p1724
sF2.169
S'0.0150413419536'
p1725
sF1.889
S'0.0294459143529'
p1726
sF3.085
S'0.0010177607658'
p1727
sF4.784
S'8.59203415536e-07'
p1728
sF3.868
S'5.48658324757e-05'
p1729
sF2.408
S'0.00802009051111'
p1730
sF2.754
S'0.00294358840809'
p1731
sF2.623
S'0.00435796362818'
p1732
sF4.403
S'5.33820830006e-06'
p1733
sF1.432
S'0.0760719106586'
p1734
sF2.929
S'0.00170027211166'
p1735
sF4.813
S'7.4340644643e-07'
p1736
sF3.331
S'0.000432673012011'
p1737
sF3.2
S'0.000687137937916'
p1738
sF3.723
S'9.84347609671e-05'
p1739
sF4.283
S'9.21950857778e-06'
p1740
sF3.375
S'0.000369078454275'
p1741
sF2.428
S'0.00759117163761'
p1742
sF2.478
S'0.00660605726307'
p1743
sF3.465
S'0.000265115739674'
p1744
sF3.175
S'0.000749182506327'
p1745
sF2.633
S'0.00423171736762'
p1746
sF4.079
S'2.2614918465e-05'
p1747
sF1.703
S'0.0442840342019'
p1748
sF3.752
S'8.77147321724e-05'
p1749
sF3.621
S'0.000146733257372'
p1750
sF1.03
S'0.151505002788'
p1751
sF4.592
S'2.19509184344e-06'
p1752
sF3.421
S'0.000311956661268'
p1753
sF1.887
S'0.0295801628252'
p1754
sF3.907
S'4.67245768151e-05'
p1755
sF3.308
S'0.000469824048023'
p1756
sF4.943
S'3.84647419366e-07'
p1757
sF4.043
S'2.63858103257e-05'
p1758
sF1.842
S'0.0327375749376'
p1759
sF1.067
S'0.142985917971'
p1760
sF2.338
S'0.00969362407203'
p1761
sF3.536
S'0.000203117346754'
p1762
sF1.331
S'0.0915945054657'
p1763
sF3.543
S'0.000197801351192'
p1764
sF3.711
S'0.000103221051969'
p1765
sF2.248
S'0.0122880949592'
p1766
sF2.419
S'0.007781620105'
p1767
sF3.982
S'3.41688899136e-05'
p1768
sF4.002
S'3.14046493514e-05'
p1769
sF3.67
S'0.000121275234285'
p1770
sF3.249
S'0.000579057390887'
p1771
sF4.839
S'6.52470233397e-07'
p1772
sF4.412
S'5.12100567715e-06'
p1773
sF1.167
S'0.121605184771'
p1774
sF1.011
S'0.156008214896'
p1775
sF4.822
S'7.10629729006e-07'
p1776
sF3.957
S'3.79484654024e-05'
p1777
sF3.826
S'6.51211445482e-05'
p1778
sF4.789
S'8.38072405414e-07'
p1779
sF4.527
S'2.99134700433e-06'
p1780
sF1.949
S'0.0256477123604'
p1781
sF3.495
S'0.000237030877651'
p1782
sF1.772
S'0.0381972786118'
p1783
sF3.476
S'0.000254476143021'
p1784
sF2.002
S'0.0226423657631'
p1785
sF2.062
S'0.0196038679872'
p1786
sF1.118
S'0.131783496683'
p1787
sF1.212
S'0.112756190317'
p1788
sF2.412
S'0.00793264076377'
p1789
sF4.232
S'1.15811204445e-05'
p1790
sF2.639
S'0.00415754904518'
p1791
sF4.132
S'1.79810210495e-05'
p1792
sF4.642
S'1.72526430578e-06'
p1793
sF4.707
S'1.25694454014e-06'
p1794
sF1.817
S'0.0346085566729'
p1795
sF1.29
S'0.0985253290497'
p1796
sF1.134
S'0.128397274004'
p1797
sF4.657
S'1.60425222479e-06'
p1798
sF4.352
S'6.7450631051e-06'
p1799
sF1.977
S'0.0240208150977'
p1800
sF1.357
S'0.087390605258'
p1801
sF2.021
S'0.0216398825466'
p1802
sF1.871
S'0.0306725405092'
p1803
sF1.77
S'0.0383635703629'
p1804
sF2.617
S'0.00443531706527'
p1805
sF2.092
S'0.0182192578491'
p1806
sF2.772
S'0.00278565182781'
p1807
sF2.822
S'0.00238625886324'
p1808
sF4.336
S'7.25494715878e-06'
p1809
sF1.542
S'0.0615367967976'
p1810
sF1.687
S'0.0458016759789'
p1811
sF1.43
S'0.0763585095367'
p1812
sF2.027
S'0.0213312063377'
p1813
sF3.978
S'3.47486858915e-05'
p1814
sF3.539
S'0.000200822926436'
p1815
sF1.249
S'0.105832536925'
p1816
sF1.007
S'0.156967387094'
p1817
sF3.021
S'0.00125970680016'
p1818
sF4.772
S'9.12027521869e-07'
p1819
sF2.208
S'0.0136221365823'
p1820
sF4.273
S'9.64302284613e-06'
p1821
sF1.603
S'0.0544673270466'
p1822
sF3.481
S'0.000249772745636'
p1823
sF4.647
S'1.68398582818e-06'
p1824
sF2.082
S'0.0186712348612'
p1825
sF1.059
S'0.14479988986'
p1826
sF3.117
S'0.000913507860781'
p1827
sF1.625
S'0.0520812794152'
p1828
sF3.981
S'3.43129746421e-05'
p1829
sF1.601
S'0.0546884595727'
p1830
sF2.959
S'0.0015431955069'
p1831
sF4.731
S'1.11708260716e-06'
p1832
sF2.226
S'0.0130070907089'
p1833
sF2.732
S'0.00314755704891'
p1834
sF2.768
S'0.00282007278349'
p1835
sF2.628
S'0.00429442578577'
p1836
sF4.141
S'1.72897480327e-05'
p1837
sF3.506
S'0.00022744760996'
p1838
sF1.748
S'0.0402320137094'
p1839
sF4.369
S'6.24083833086e-06'
p1840
sF2.803
S'0.00253148346709'
p1841
sF4.759
S'9.72772178748e-07'
p1842
sF1.648
S'0.0496763355919'
p1843
sF2.4
S'0.0081975359246'
p1844
sF3.044
S'0.00116727570221'
p1845
sF3.289
S'0.000502720118292'
p1846
sF4.025
S'2.84876577405e-05'
p1847
sF4.622
S'1.90029007081e-06'
p1848
sF4.93
S'4.11148083844e-07'
p1849
sF4.1
S'2.06575069125e-05'
p1850
sF1.514
S'0.0650129197451'
p1851
sF3.049
S'0.00114802240828'
p1852
sF2.918
S'0.00176142174963'
p1853
sF2.233
S'0.0127744721847'
p1854
sF4.761
S'9.63180242082e-07'
p1855
sF4.358
S'6.56281919727e-06'
p1856
sF1.219
S'0.111422096243'
p1857
sF3.626
S'0.000143922676528'
p1858
sF1.793
S'0.0364864620362'
p1859
sF1.279
S'0.100448527946'
p1860
sF4.961
S'3.50655959646e-07'
p1861
sF3.164
S'0.00077808397747'
p1862
sF2.954
S'0.0015684200284'
p1863
sF3.76
S'8.4956678498e-05'
p1864
sF2.795
S'0.0025949857599'
p1865
sF1.934
S'0.0265565639242'
p1866
sF4.51
S'3.24138128735e-06'
p1867
sF3.008
S'0.00131486568989'
p1868
sF4.92
S'4.32721061862e-07'
p1869
sF3.032
S'0.00121469601949'
p1870
sF4.33
S'7.45546709136e-06'
p1871
sF3.829
S'6.43325034724e-05'
p1872
sF3.585
S'0.000168539102604'
p1873
sF3.454
S'0.000276168687792'
p1874
sF4.74
S'1.06859109455e-06'
p1875
sF4.045
S'2.61615620607e-05'
p1876
sF3.123
S'0.000895088739657'
p1877
sF4.879
S'5.33125320677e-07'
p1878
sF3.446
S'0.000284475179649'
p1879
sF2.256
S'0.012035315566'
p1880
sF1.599
S'0.0549103012997'
p1881
sF4.5
S'3.39767312473e-06'
p1882
sF4.699
S'1.3071922706e-06'
p1883
sF4.275
S'9.55686473729e-06'
p1884
sF3.875
S'5.33123497511e-05'
p1885
sF1.026
S'0.152445792033'
p1886
sF3.666
S'0.000123186962027'
p1887
sF4.887
S'5.11920469555e-07'
p1888
sF3.216
S'0.000649954160636'
p1889
sF3.675
S'0.000118924707327'
p1890
sF3.544
S'0.000197052622732'
p1891
sF4.15
S'1.66237637297e-05'
p1892
sF3.946
S'3.97338066511e-05'
p1893
sF1.953
S'0.0254097975957'
p1894
sF1.612
S'0.0534809698629'
p1895
sF3.921
S'4.40911314511e-05'
p1896
sF3.79
S'7.53236423787e-05'
p1897
sF1.006
S'0.157207785031'
p1898
sF1.936
S'0.0264338504839'
p1899
sF2.935
S'0.00166773843981'
p1900
sF1.298
S'0.0971436674855'
p1901
sF4.455
S'4.19465973775e-06'
p1902
sF1.071
S'0.142084714822'
p1903
sF4.419
S'4.95793237399e-06'
p1904
sF2.371
S'0.00887001554347'
p1905
sF3.29
S'0.000500936913786'
p1906
sF3.634
S'0.000139530430329'
p1907
sF4.929
S'4.13257872692e-07'
p1908
sF3.615
S'0.000150173810839'
p1909
sF2.281
S'0.0112742234392'
p1910
sF4.947
S'3.76829882539e-07'
p1911
sF1.194
S'0.116238984027'
p1912
sF3.986
S'3.35982557554e-05'
p1913
sF4.478
S'3.76728007816e-06'
p1914
sF3.749
S'8.87705427683e-05'
p1915
sF4.888
S'5.09327652753e-07'
p1916
sF2.141
S'0.0161370190302'
p1917
sF4.829
S'6.86102042334e-07'
p1918
sF1.436
S'0.075501170632'
p1919
sF1.711
S'0.0435405564135'
p1920
sF2.316
S'0.0102791343456'
p1921
sF3.696
S'0.000109511485733'
p1922
sF4.11
S'1.97829558682e-05'
p1923
sF3.995
S'3.2347126477e-05'
p1924
sF1.339
S'0.0902853364531'
p1925
sF1.641
S'0.0503987075976'
p1926
sF4.865
S'5.7228403658e-07'
p1927
sF2.496
S'0.00628013007686'
p1928
sF2.594
S'0.00474332434582'
p1929
sF2.852
S'0.0021722550311'
p1930
sF4.318
S'7.87247152474e-06'
p1931
sF3.812
S'6.892343834e-05'
p1932
sF4.298
S'8.61730816752e-06'
p1933
sF2.1
S'0.0178644205628'
p1934
sF4.235
S'1.1427585294e-05'
p1935
sF4.608
S'2.03280331758e-06'
p1936
sF4.118
S'1.91087348128e-05'
p1937
sF2.808
S'0.0024925113404'
p1938
sF1.384
S'0.0831792273694'
p1939
sF4.281
S'9.30276789944e-06'
p1940
sF3.55
S'0.000192615575636'
p1941
sF1.582
S'0.0568247852439'
p1942
sF1.325
S'0.0925855756568'
p1943
sF1.607
S'0.0540271840539'
p1944
sF3.445
S'0.000285529695838'
p1945
sF2.521
S'0.00585109260396'
p1946
sF1.808
S'0.0353032502905'
p1947
sF2.923
S'0.00173338258201'
p1948
sF2.15
S'0.0157776073911'
p1949
sF4.589
S'2.22687214708e-06'
p1950
sF3.744
S'9.05568261042e-05'
p1951
sF1.516
S'0.0647596762032'
p1952
sF1.509
S'0.0656493913918'
p1953
sF2.592
S'0.00477098857962'
p1954
sF2.56
S'0.00523360816356'
p1955
sF1.73
S'0.0418151376136'
p1956
sF2.767
S'0.00282873775728'
p1957
sF1.048
S'0.147319303441'
p1958
sF2.636
S'0.0041944865765'
p1959
sF4.69
S'1.36602524461e-06'
p1960
sF2.305
S'0.0105832867075'
p1961
sF3.754
S'8.70174313691e-05'
p1962
sF3.344
S'0.000412898687163'
p1963
sF4.248
S'1.07843697441e-05'
p1964
sF1.853
S'0.0319411793273'
p1965
sF3.013
S'0.00129339458801'
p1966
sF3.145
S'0.00083043414983'
p1967
sF3.51
S'0.000224053346991'
p1968
sF1.428
S'0.0766459292606'
p1969
sF1.622
S'0.052401674067'
p1970
sF2.761
S'0.00288123382018'
p1971
sF2.247
S'0.0123200135553'
p1972
sF4.605
S'2.06232930399e-06'
p1973
sF2.265
S'0.0117563397578'
p1974
sF3.42
S'0.000313105678581'
p1975
sF2.47
S'0.00675565260714'
p1976
sF3.128
S'0.000880000906508'
p1977
sF2.989
S'0.00139946065855'
p1978
sF4.87
S'5.5799124321e-07'
p1979
sF4.841
S'6.4593686305e-07'
p1980
sF4.313
S'8.05270591465e-06'
p1981
sF2.527
S'0.00575207513677'
p1982
sF2.972
S'0.00147933342031'
p1983
sF3.88
S'5.22282324018e-05'
p1984
sF1.997
S'0.0229125914957'
p1985
sF1.356
S'0.0875495840255'
p1986
sF4.577
S'2.35845730018e-06'
p1987
sF1.133
S'0.128607126657'
p1988
sF3.418
S'0.000315415534634'
p1989
sF4.617
S'1.94663634939e-06'
p1990
sF3.625
S'0.000144480725881'
p1991
sF3.803
S'7.1477177826e-05'
p1992
sF1.18
S'0.119000107455'
p1993
sF3.705
S'0.000105695366347'
p1994
sF3.393
S'0.000345658191178'
p1995
sF4.437
S'4.56106467912e-06'
p1996
sF4.609
S'2.02305166522e-06'
p1997
sF4.285
S'9.13695940929e-06'
p1998
sF3.785
S'7.68542892448e-05'
p1999
sF1.812
S'0.0349930982519'
p2000
sF4.576
S'2.36975271337e-06'
p2001
sF1.008
S'0.156727231116'
p2002
sF1.424
S'0.0772232360346'
p2003
sF4.986
S'3.08210720868e-07'
p2004
sF3.508
S'0.000225744524965'
p2005
sF4.396
S'5.51319667179e-06'
p2006
sF1.588
S'0.0561431695616'
p2007
sF1.086
S'0.138739496123'
p2008
sF3.954
S'3.84277045229e-05'
p2009
sF4.011
S'3.02310551605e-05'
p2010
sF3.623
S'0.000145602911185'
p2011
sF4.383
S'5.85280564872e-06'
p2012
sF2.059
S'0.0197471192437'
p2013
sF2.474
S'0.00668048483974'
p2014
sF2.076
S'0.0189469754969'
p2015
sF4.733
S'1.10612744505e-06'
p2016
sF3.91
S'4.61480605562e-05'
p2017
sF2.19
S'0.0142621184107'
p2018
sF3.415
S'0.000318910057725'
p2019
sF3.199
S'0.000689525844332'
p2020
sF4.806
S'7.69899491093e-07'
p2021
sF3.869
S'5.46413210765e-05'
p2022
sF3.582
S'0.000170486896409'
p2023
sF4.216
S'1.24336879472e-05'
p2024
sF3.106
S'0.000948183578408'
p2025
sF1.238
S'0.107858030413'
p2026
sF4.626
S'1.86397648364e-06'
p2027
sF4.111
S'1.96974600417e-05'
p2028
sF1.198
S'0.115458508492'
p2029
sF1.399
S'0.0809064915326'
p2030
sF2.218
S'0.0132774162085'
p2031
sF4.086
S'2.19436890122e-05'
p2032
sF4.175
S'1.4899302687e-05'
p2033
sF2.28
S'0.0113038442386'
p2034
sF2.404
S'0.00810838664294'
p2035
sF1.192
S'0.116630622635'
p2036
sF4.007
S'3.07474315486e-05'
p2037
sF2.109
S'0.0174722908165'
p2038
sF1.145
S'0.126104578688'
p2039
sF1.281
S'0.100096833048'
p2040
sF4.066
S'2.39134677686e-05'
p2041
sF2.814
S'0.00244646141847'
p2042
sF2.526
S'0.00576847406278'
p2043
sF1.262
S'0.103474393189'
p2044
sF2.948
S'0.00159918532367'
p2045
sF1.444
S'0.0743694876703'
p2046
sF1.651
S'0.0493692874483'
p2047
sF2.064
S'0.0195088581944'
p2048
sF4.584
S'2.28082117552e-06'
p2049
sF2.486
S'0.00645939828007'
p2050
sF4.895
S'4.91528642409e-07'
p2051
sF1.667
S'0.0477572024363'
p2052
sF1.511
S'0.0653942254362'
p2053
sF4.305
S'8.34928677945e-06'
p2054
sF1.055
S'0.145712662373'
p2055
sF4.405
S'5.28919389327e-06'
p2056
sF1.33
S'0.0917591356503'
p2057
sF2.816
S'0.00243128333393'
p2058
sF4.715
S'1.2085537465e-06'
p2059
sF3.383
S'0.000358493161458'
p2060
sF2.264
S'0.011787057389'
p2061
sF2.797
S'0.00257897666387'
p2062
sF2.485
S'0.00647757173187'
p2063
sF2.724
S'0.00322482532458'
p2064
sF2.887
S'0.00194467115245'
p2065
sF4.388
S'5.71988879079e-06'
p2066
sF4.126
S'1.84563632975e-05'
p2067
sF3.352
S'0.000401150093895'
p2068
sF4.364
S'6.38527882698e-06'
p2069
sF4.476
S'3.80272421614e-06'
p2070
sF4.774
S'9.03011904511e-07'
p2071
sF4.656
S'1.61205966195e-06'
p2072
sF1.811
S'0.0350704258344'
p2073
sF3.639
S'0.000136849399745'
p2074
sF1.786
S'0.0370496290682'
p2075
sF1.779
S'0.0376198809808'
p2076
sF1.634
S'0.0511294252982'
p2077
sF1.083
S'0.13940421152'
p2078
sF4.125
S'1.85367378462e-05'
p2079
sF2.846
S'0.00221360974397'
p2080
sF1.715
S'0.0431726134645'
p2081
sF1.475
S'0.0701062717112'
p2082
sF1.102
S'0.135230835806'
p2083
sF1.47
S'0.0707808769917'
p2084
sF3.423
S'0.000309670386598'
p2085
sF2.388
S'0.00847017089142'
p2086
sF4.084
S'2.21335152888e-05'
p2087
sF3.092
S'0.000994064245774'
p2088
sF1.549
S'0.0606908600378'
p2089
sF4.494
S'3.49488139844e-06'
p2090
sF4.594
S'2.17414688323e-06'
p2091
sF2.037
S'0.020825021003'
p2092
sF4.886
S'5.14525988465e-07'
p2093
sF3.238
S'0.000601854047626'
p2094
sF3.916
S'4.50151237756e-05'
p2095
sF2.805
S'0.00251582898816'
p2096
sF3.844
S'6.0522502554e-05'
p2097
sF3.794
S'7.41198365929e-05'
p2098
sF3.155
S'0.000802490526851'
p2099
sF4.296
S'8.69537908531e-06'
p2100
sF2.093
S'0.0181745772778'
p2101
sF2.177
S'0.0147402837202'
p2102
sF2.589
S'0.00481275472328'
p2103
sF2.798
S'0.00257100563238'
p2104
sF2.773
S'0.00277710603666'
p2105
sF3.453
S'0.000277194501414'
p2106
sF3.959
S'3.76321184222e-05'
p2107
sF2.003
S'0.0225886442388'
p2108
sF2.691
S'0.0035619097427'
p2109
sF1.733
S'0.0415478343965'
p2110
sF4.907
S'4.62400165357e-07'
p2111
sF4.504
S'3.33431030618e-06'
p2112
sF2.047
S'0.0203290422714'
p2113
sF4.131
S'1.8059429097e-05'
p2114
sF2.568
S'0.0051143578032'
p2115
sF2.834
S'0.00229846659986'
p2116
sF2.308
S'0.0104995682452'
p2117
sF3.472
S'0.0002582981684'
p2118
sF2.65
S'0.00402458854276'
p2119
sF2.445
S'0.00724260709743'
p2120
sF4.683
S'1.41353256669e-06'
p2121
sF1.502
S'0.0665485544144'
p2122
sF4.937
S'3.96667355299e-07'
p2123
sF1.995
S'0.0230214399321'
p2124
sF3.587
S'0.000167252161838'
p2125
sF4.503
S'3.35004419175e-06'
p2126
sF4.049
S'2.57184724026e-05'
p2127
sF3.568
S'0.000179858252203'
p2128
sF4.233
S'1.15297252537e-05'
p2129
sF2.154
S'0.0156200859587'
p2130
sF1.465
S'0.0714604588772'
p2131
sF3.833
S'6.3294976755e-05'
p2132
sF1.258
S'0.104195878124'
p2133
sF4.541
S'2.79940158363e-06'
p2134
sF1.256
S'0.104557985043'
p2135
sF1.253
S'0.105102853348'
p2136
sF1.207
S'0.113716071986'
p2137
sF2.269
S'0.0116341629346'
p2138
sF4.554
S'2.63176778495e-06'
p2139
sF1.381
S'0.0836394803294'
p2140
sF2.069
S'0.0192730433499'
p2141
sF4.323
S'7.6960866819e-06'
p2142
sF2.534
S'0.00563843658626'
p2143
sF1.403
S'0.0803084194723'
p2144
sF2.515
S'0.00595161918952'
p2145
sF1.757
S'0.0394589046005'
p2146
sF2.621
S'0.0043836130981'
p2147
sF2.184
S'0.0144811240302'
p2148
sF4.282
S'9.26104910965e-06'
p2149
sF1.526
S'0.0635049322474'
p2150
sF2.359
S'0.00916212788354'
p2151
sF4.692
S'1.35273563887e-06'
p2152
sF3.361
S'0.000388304127719'
p2153
sF1.558
S'0.0596166240615'
p2154
sF2.936
S'0.00166237161238'
p2155
sF3.276
S'0.000526442804342'
p2156
sF1.018
S'0.154338978038'
p2157
sF4.241
S'1.11263068396e-05'
p2158
sF3.194
S'0.000701580586638'
p2159
sF1.239
S'0.107672749033'
p2160
sF2.437
S'0.00740483968155'
p2161
sF2.136
S'0.0163397069095'
p2162
sF3.182
S'0.000731309092374'
p2163
sF2.142
S'0.0160967410159'
p2164
sF1.094
S'0.136977489105'
p2165
sF3.847
S'5.97864847131e-05'
p2166
sF1.493
S'0.0677185934506'
p2167
sF1.34
S'0.0901226724645'
p2168
sF1.794
S'0.0364065844162'
p2169
sF2.895
S'0.00189579266314'
p2170
sF4.404
S'5.3136471319e-06'
p2171
sF1.293
S'0.0980055295499'
p2172
sF1.694
S'0.0451326415227'
p2173
sF2.267
S'0.0116951128591'
p2174
sF2.564
S'0.00517367722854'
p2175
sF4.436
S'4.58229237372e-06'
p2176
sF1.48
S'0.0694366233333'
p2177
sF4.061
S'2.44314857581e-05'
p2178
sF1.917
S'0.0276189658246'
p2179
sF3.394
S'0.000344398462883'
p2180
sF4.471
S'3.89273492193e-06'
p2181
sF4.896
S'4.89035328141e-07'
p2182
sF4.781
S'8.7212681255e-07'
p2183
sF2.552
S'0.00535532593821'
p2184
sF1.199
S'0.115263972803'
p2185
sF3.718
S'0.000100403135143'
p2186
sF3.257
S'0.000562982164724'
p2187
sF3.297
S'0.000488617506164'
p2188
sF1.886
S'0.0296474773293'
p2189
sF3.462
S'0.000268088577617'
p2190
sF3.387
S'0.000353306939016'
p2191
sF2.966
S'0.00150850244761'
p2192
sF4.751
S'1.0120656623e-06'
p2193
sF3.562
S'0.000184020192066'
p2194
sF1.151
S'0.124866117771'
p2195
sF3.431
S'0.000300680300381'
p2196
sF2.285
S'0.0111564138801'
p2197
sF1.174
S'0.120197512813'
p2198
sF1.115
S'0.132425210863'
p2199
sF2.878
S'0.00200102569583'
p2200
sF2.713
S'0.0033338553286'
p2201
sF3.808
S'7.0047636593e-05'
p2202
sF1.847
S'0.0323735701445'
p2203
sF2.058
S'0.0197950667002'
p2204
sF2.294
S'0.0108952493704'
p2205
sF4.335
S'7.28800611903e-06'
p2206
sF4.601
S'2.10233714036e-06'
p2207
sF1.056
S'0.145484107431'
p2208
sF1.855
S'0.0317981132886'
p2209
sF2.341
S'0.00961608355603'
p2210
sF3.635
S'0.000138990317852'
p2211
sF4.685
S'1.39979966283e-06'
p2212
sF3.521
S'0.000214961308318'
p2213
sF2.421
S'0.00773893864065'
p2214
sF3.923
S'4.37265756597e-05'
p2215
sF4.788
S'8.42258242957e-07'
p2216
sF3.834
S'6.30380704438e-05'
p2217
sF2.57
S'0.00508492574899'
p2218
sF4.66
S'1.58104691897e-06'
p2219
sF4.059
S'2.46416568213e-05'
p2220
sF3.384
S'0.000357190015829'
p2221
sF1.684
S'0.0460908343687'
p2222
sF4.959
S'3.54284836301e-07'
p2223
sF4.409
S'5.19245126195e-06'
p2224
sF1.584
S'0.0565968595487'
p2225
sF3.305
S'0.000474881999902'
p2226
sF2.327
S'0.00998263262454'
p2227
sF2.626
S'0.00431974086942'
p2228
sF3.574
S'0.000175784463943'
p2229
sF3.882
S'5.18004387108e-05'
p2230
sF2.831
S'0.00232013605221'
p2231
sF4.901
S'4.76750281955e-07'
p2232
sF4.639
S'1.75049526772e-06'
p2233
sF3.526
S'0.000210943484473'
p2234
sF2.036
S'0.0208751776351'
p2235
sF4.098
S'2.08367640575e-05'
p2236
sF3.726
S'9.72712015891e-05'
p2237
sF4.79
S'8.33906565923e-07'
p2238
sF4.327
S'7.55769807917e-06'
p2239
sF2.484
S'0.00649579040084'
p2240
sF4.737
S'1.0845258282e-06'
p2241
sF4.334
S'7.32120870092e-06'
p2242
sF4.61
S'2.01334485481e-06'
p2243
sF1.372
S'0.0850317189066'
p2244
sF3.972
S'3.56358599491e-05'
p2245
sF1.416
S'0.0783877522312'
p2246
sF1.463
S'0.0717336894744'
p2247
sF4.749
S'1.02212471303e-06'
p2248
sF1.162
S'0.122617732466'
p2249
sF3.241
S'0.000595555919478'
p2250
sF3.691
S'0.000111687068793'
p2251
sF2.446
S'0.00722255002506'
p2252
sF4.569
S'2.45028391389e-06'
p2253
sF1.385
S'0.0830262336825'
p2254
sF2.077
S'0.0189007796103'
p2255
sF2.101
S'0.0178204831246'
p2256
sF2.479
S'0.00658756530692'
p2257
sF2.654
S'0.003977191344'
p2258
sF1.525
S'0.063629548829'
p2259
sF1.713
S'0.0433562697963'
p2260
sF2.323
S'0.0100895762193'
p2261
sF2.192
S'0.0141897533164'
p2262
sF3.473
S'0.000257337677642'
p2263
sF1.537
S'0.0621466546861'
p2264
sF2.625
S'0.00433244836301'
p2265
sF4.979
S'3.19568213746e-07'
p2266
sF1.826
S'0.0339251309211'
p2267
sF1.089
S'0.138076942842'
p2268
sF3.306
S'0.000473190438457'
p2269
sF2.148
S'0.0158568777306'
p2270
sF2.511
S'0.00601948484867'
p2271
sF3.034
S'0.00120667214994'
p2272
sF1.653
S'0.0491654317842'
p2273
sF4.528
S'2.97722908716e-06'
p2274
sF1.553
S'0.060211567305'
p2275
sF2.703
S'0.0034358373184'
p2276
sF4.938
S'3.94639213764e-07'
p2277
sF2.282
S'0.0112446701279'
p2278
sF3.19
S'0.000711363968645'
p2279
sF4.348
S'6.86923021691e-06'
p2280
sF1.776
S'0.0378664585729'
p2281
sF1.732
S'0.0416367812201'
p2282
sF2.68
S'0.00368110800917'
p2283
sF2.523
S'0.00581792005088'
p2284
sF3.436
S'0.000295185486198'
p2285
sF4.094
S'2.11997154441e-05'
p2286
sF1.698
S'0.0447538809172'
p2287
sF1.387
S'0.0827208814167'
p2288
sF1.899
S'0.0287822379943'
p2289
sF4.824
S'7.03537083411e-07'
p2290
sF4.717
S'1.19673845307e-06'
p2291
sF2.863
S'0.00209825281662'
p2292
sF3.28
S'0.000519035433207'
p2293
sF2.175
S'0.0148150581926'
p2294
sF4.844
S'6.36254658607e-07'
p2295
sF3.682
S'0.000115705705388'
p2296
sF1.527
S'0.0633805056857'
p2297
sF2.949
S'0.00159401988029'
p2298
sF2.818
S'0.00241619049208'
p2299
sF1.275
S'0.101154620996'
p2300
sF1.59
S'0.0559174025195'
p2301
sF1.5
S'0.0668072012689'
p2302
sF4.988
S'3.0503784407e-07'
p2303
sF3.395
S'0.000343143002858'
p2304
sF1.944
S'0.0259477255498'
p2305
sF4.127
S'1.8376319691e-05'
p2306
sF4.935
S'4.00753799075e-07'
p2307
sF1.338
S'0.0904482183947'
p2308
sF2.38
S'0.00865631902552'
p2309
sF2.049
S'0.0202310574622'
p2310
sF3.641
S'0.000135790568217'
p2311
sF2.085
S'0.0185346502667'
p2312
sF4.157
S'1.61226995336e-05'
p2313
sF1.309
S'0.0952671753674'
p2314
sF2.29
S'0.0110106583244'
p2315
sF2.495
S'0.0062978565085'
p2316
sF3.38
S'0.000362429149033'
p2317
sF3.887
S'5.0745377052e-05'
p2318
sF1.285
S'0.0993961420151'
p2319
sF3.466
S'0.000264131639831'
p2320
sF4.649
S'1.66774106422e-06'
p2321
sF1.326
S'0.0924198486906'
p2322
sF1.819
S'0.0344557150393'
p2323
sF3.931
S'4.2296636005e-05'
p2324
sF1.054
S'0.145941458567'
p2325
sF3.935
S'4.15983480703e-05'
p2326
sF3.731
S'9.53606118231e-05'
p2327
sF2.847
S'0.00220666811884'
p2328
sF1.543
S'0.0614153879594'
p2329
sF4.357
S'6.59286339782e-06'
p2330
sF4.337
S'7.22203123186e-06'
p2331
sF4.257
S'1.03594177812e-05'
p2332
sF1.981
S'0.0237956367936'
p2333
sF4.767
S'9.34946549498e-07'
p2334
sF1.26
S'0.103834681121'
p2335
sF1.378
S'0.0841016440713'
p2336
sF4.667
S'1.52814665074e-06'
p2337
sF1.177
S'0.119597753126'
p2338
sF2.2
S'0.0139034475135'
p2339
sF4.712
S'1.2264868999e-06'
p2340
sF4.077
S'2.28102463895e-05'
p2341
sF3.846
S'6.00308811075e-05'
p2342
sF4.567
S'2.47377005521e-06'
p2343
sF2.107
S'0.0175587897859'
p2344
sF2.867
S'0.0020719150629'
p2345
sF4.917
S'4.39402758114e-07'
p2346
sF2.587
S'0.00484077960857'
p2347
sF1.998
S'0.0228583300611'
p2348
sF3.124
S'0.00089205228384'
p2349
sF3.11
S'0.000935436719514'
p2350
sF4.546
S'2.73375180203e-06'
p2351
sF4.331
S'7.42168409399e-06'
p2352
sF4.487
S'3.61165373246e-06'
p2353
sF2.22
S'0.0132093838073'
p2354
sF3.805
S'7.09020953596e-05'
p2355
sF4.897
S'4.86554191304e-07'
p2356
sF4.485
S'3.64569673114e-06'
p2357
sF2.197
S'0.014010223104'
p2358
sF4.638
S'1.75898393281e-06'
p2359
sF2.364
S'0.00903940629272'
p2360
sF4.067
S'2.38111215314e-05'
p2361
sF4.039
S'2.68397825906e-05'
p2362
sF2.372
S'0.00884604535735'
p2363
sF2.569
S'0.00509962287337'
p2364
sF2.774
S'0.00276858391015'
p2365
sF4.446
S'4.37419739031e-06'
p2366
sF3.422
S'0.000310811568027'
p2367
sF4.881
S'5.27746210275e-07'
p2368
sF4.956
S'3.59796078431e-07'
p2369
sF4.053
S'2.52825012142e-05'
p2370
sF4.266
S'9.950438952e-06'
p2371
sF2.618
S'0.00442234025597'
p2372
sF2.487
S'0.00644126995137'
p2373
sF1.49
S'0.0681121179667'
p2374
sF2.287
S'0.0110979115473'
p2375
sF1.234
S'0.108601452122'
p2376
sF3.195
S'0.000699154202829'
p2377
sF3.774
S'8.03253799502e-05'
p2378
sF2.769
S'0.00281143176118'
p2379
sF4.572
S'2.41545469537e-06'
p2380
sF4.225
S'1.19470389011e-05'
p2381
sF3.591
S'0.000164705818035'
p2382
sF4.264
S'1.00399721577e-05'
p2383
sF3.205
S'0.000675312402935'
p2384
sF3.429
S'0.000302904763787'
p2385
sF2.908
S'0.00181874168803'
p2386
sF2.684
S'0.00363735531309'
p2387
sF1.576
S'0.0575129016062'
p2388
sF3.134
S'0.000862204279958'
p2389
sF2.032
S'0.0210768279733'
p2390
sF3.339
S'0.000420402821565'
p2391
sF2.979
S'0.00144595389144'
p2392
sF1.924
S'0.027177291734'
p2393
sF4.496
S'3.46218679911e-06'
p2394
sF1.035
S'0.150334455599'
p2395
sF2.319
S'0.0101975181638'
p2396
sF1.869
S'0.0308114071901'
p2397
sF2.823
S'0.00237882858051'
p2398
sF2.692
S'0.00355124726436'
p2399
sF1.24
S'0.107487697075'
p2400
sF2.956
S'0.00155828545472'
p2401
sF1.164
S'0.122212005886'
p2402
sF2.361
S'0.00911286530741'
p2403
sF1.836
S'0.0331788283263'
p2404
sF2.339
S'0.00966771674549'
p2405
sF4.036
S'2.71851079097e-05'
p2406
sF3.09
S'0.00100078247661'
p2407
sF1.881
S'0.0299859594213'
p2408
sF2.044
S'0.0204767735744'
p2409
sF2.648
S'0.0040484762606'
p2410
sF4.49
S'3.5611586796e-06'
p2411
sF2.249
S'0.0122562480355'
p2412
sF3.347
S'0.000408456051884'
p2413
sF2.227
S'0.0129736368954'
p2414
sF3.113
S'0.000925980088737'
p2415
sF2.07
S'0.0192261722275'
p2416
sF4.004
S'3.11401821585e-05'
p2417
sF3.515
S'0.000219876994135'
p2418
sF3.203
S'0.000680019905237'
p2419
sF2.782
S'0.00270125200485'
p2420
sF3.69
S'0.000112127025982'
p2421
sF3.184
S'0.000726275061911'
p2422
sF1.17
S'0.121000484421'
p2423
sF1.195
S'0.116043515058'
p2424
sF4.255
S'1.04524507616e-05'
p2425
sF4.629
S'1.83717884311e-06'
p2426
sF1.021
S'0.153627219356'
p2427
sF2.461
S'0.00692751830382'
p2428
sF2.635
S'0.0042068641577'
p2429
sF3.936
S'4.14254862579e-05'
p2430
sF2.454
S'0.00706384907289'
p2431
sF1.916
S'0.027682547845'
p2432
sF2.42
S'0.00776025355055'
p2433
sF3.96
S'3.74748816911e-05'
p2434
sF4.747
S'1.03227975975e-06'
p2435
sF3.605
S'0.000156076464198'
p2436
sF3.474
S'0.000256380516882'
p2437
sF4.085
S'2.20384082907e-05'
p2438
sF3.78
S'7.84141793836e-05'
p2439
sF4.234
S'1.14785471589e-05'
p2440
sF4.435
S'4.60361444353e-06'
p2441
sF4.544
S'2.75983287771e-06'
p2442
sF3.449
S'0.000281333351035'
p2443
sF4.644
S'1.7086378004e-06'
p2444
sF3.72
S'9.96113889759e-05'
p2445
sF1.875
S'0.0303963617653'
p2446
sF4.315
S'7.98014516476e-06'
p2447
sF3.895
S'4.90993648862e-05'
p2448
sF4.665
S'1.54308519398e-06'
p2449
sF3.564
S'0.000182622976499'
p2450
sF2.413
S'0.0079109097853'
p2451
sF1.951
S'0.0255285228926'
p2452
sF2.118
S'0.0170875338424'
p2453
sF4.723
S'1.16195424783e-06'
p2454
sF4.954
S'3.63516029932e-07'
p2455
sF3.323
S'0.000445274572287'
p2456
sF1.15
S'0.125071935637'
p2457
sF2.09
S'0.0183088998517'
p2458
sF4.495
S'3.47849735828e-06'
p2459
sF3.985
S'3.37400628322e-05'
p2460
sF1.081
S'0.139848556817'
p2461
sF1.405
S'0.080010639136'
p2462
sF1.773
S'0.0381143534355'
p2463
sF3.966
S'3.65444310288e-05'
p2464
sF2.246
S'0.0123520039531'
p2465
sF4.663
S'1.55816376599e-06'
p2466
sF4.807
S'7.66059953961e-07'
p2467
sF3.636
S'0.000138452165119'
p2468
sF2.046
S'0.0203781853371'
p2469
sF4.423
S'4.86698707194e-06'
p2470
sF1.721
S'0.0426254119454'
p2471
sF1.464
S'0.0715969741734'
p2472
sF1.912
S'0.0279380970265'
p2473
sF2.028
S'0.0212801240023'
p2474
sF3.909
S'4.63394819973e-05'
p2475
sF3.233
S'0.000612487813479'
p2476
sF4.143
S'1.71395972664e-05'
p2477
sF2.438
S'0.00738438700356'
p2478
sF4.411
S'5.14471590878e-06'
p2479
sF2.914
S'0.00178414953291'
p2480
sF2.9
S'0.00186581330038'
p2481
sF2.607
S'0.00456696801489'
p2482
sF3.701
S'0.000107375738153'
p2483
sF3.046
S'0.00115953917579'
p2484
sF3.038
S'0.0011907697731'
p2485
sF2.157
S'0.015502832222'
p2486
sF3.643
S'0.000134739419093'
p2487
sF3.642
S'0.000135264036585'
p2488
sF1.572
S'0.0579752756082'
p2489
sF1.367
S'0.0858126527551'
p2490
sF4.553
S'2.64431365739e-06'
p2491
sF4.658
S'1.59648106233e-06'
p2492
sF1.469
S'0.0709163946117'
p2493
sF1.738
S'0.0411054068877'
p2494
sF4.963
S'3.47062910659e-07'
p2495
sF3.028
S'0.00123089043661'
p2496
sF1.494
S'0.0675878096383'
p2497
sF4.508
S'3.27207880912e-06'
p2498
sF3.7
S'0.000107799733477'
p2499
sF4.373
S'6.12753620214e-06'
p2500
sF1.695
S'0.045037710391'
p2501
sF1.156
S'0.123840578493'
p2502
sF1.257
S'0.104376817791'
p2503
sF3.498
S'0.000234380566314'
p2504
sF2.872
S'0.00203941483608'
p2505
sF4.512
S'3.21095941211e-06'
p2506
sF4.012
S'3.01032500501e-05'
p2507
sF3.274
S'0.00053018305656'
p2508
sF4.397
S'5.48786724933e-06'
p2509
sF4.994
S'2.95706987127e-07'
p2510
sF4.922
S'4.28321070513e-07'
p2511
sF4.32
S'7.8014600381e-06'
p2512
sF4.332
S'7.38804709438e-06'
p2513
sF1.322
S'0.0930840754583'
p2514
sF3.118
S'0.000910414017853'
p2515
sF3.831
S'6.38117527417e-05'
p2516
sF4.783
S'8.63490628279e-07'
p2517
sF4.674
S'1.4769466502e-06'
p2518
sF2.656
S'0.00395368071929'
p2519
sF3.708
S'0.000104451328166'
p2520
sF3.695
S'0.000109943393658'
p2521
sF3.807
S'7.03313726593e-05'
p2522
sF3.965
S'3.66979735459e-05'
p2523
sF3.012
S'0.00129766298761'
p2524
sF1.662
S'0.0482563872411'
p2525
sF2.717
S'0.00329383038482'
p2526
sF2.573
S'0.00504106038585'
p2527
sF4.742
S'1.05809312056e-06'
p2528
sF4.152
S'1.64791130962e-05'
p2529
sF3.077
S'0.00104547650445'
p2530
sF3.479
S'0.000251644293415'
p2531
sF4.972
S'3.31328526646e-07'
p2532
sF3.654
S'0.00012909313321'
p2533
sF2.74
S'0.00307195921865'
p2534
sF2.997
S'0.00136325356664'
p2535
sF4.701
S'1.29445257546e-06'
p2536
sF1.231
S'0.109161432141'
p2537
sF3.192
S'0.000706456663422'
p2538
sF3.167
S'0.000770101592046'
p2539
sF4.521
S'3.07740941113e-06'
p2540
sF2.422
S'0.00771767527173'
p2541
sF3.769
S'8.19514438488e-05'
p2542
sF2.577
S'0.00498309753164'
p2543
sF4.413
S'5.09739982464e-06'
p2544
sF3.782
S'7.7786681109e-05'
p2545
sF1.445
S'0.0742289428187'
p2546
sF2.152
S'0.0156986771822'
p2547
sF4.013
S'2.99759566666e-05'
p2548
sF3.613
S'0.000151337351833'
p2549
sF1.852
S'0.0320129114542'
p2550
sF2.005
S'0.0224815235182'
p2551
sF1.519
S'0.0643812479883'
p2552
sF3.684
S'0.000114801119914'
p2553
sF1.019
S'0.154101483264'
p2554
sF1.539
S'0.0619021481224'
p2555
sF4.931
S'4.09048670657e-07'
p2556
sF1.064
S'0.143664349772'
p2557
sF4.243
S'1.10275717859e-05'
p2558
sF3.859
S'5.69259688873e-05'
p2559
sF1.271
S'0.101864324313'
p2560
sF4.341
S'7.09178616957e-06'
p2561
sF3.499
S'0.000233503290563'
p2562
sF4.593
S'2.18459531333e-06'
p2563
sF3.487
S'0.000244235678724'
p2564
sF1.681
S'0.0463814572819'
p2565
sF1.085
S'0.138960827634'
p2566
sF3.522
S'0.000214152071685'
p2567
sF1.406
S'0.0798620623858'
p2568
sF4.89
S'5.04179888358e-07'
p2569
sF3.974
S'3.53377813612e-05'
p2570
sF4.3
S'8.53990547099e-06'
p2571
sF4.823
S'7.07074854268e-07'
p2572
sF4.71
S'1.23858395735e-06'
p2573
sF3.949
S'3.92391758356e-05'
p2574
sF3.818
S'6.72689628299e-05'
p2575
sF3.913
S'4.55782673204e-05'
p2576
sF4.773
S'9.07508955326e-07'
p2577
sF3.37
S'0.0003758409184'
p2578
sF1.244
S'0.106749781464'
p2579
sF2.079
S'0.0188086752322'
p2580
sF3.112
S'0.000929122495473'
p2581
sF1.286
S'0.0992215308396'
p2582
sF4.372
S'6.15567627539e-06'
p2583
sF2.051
S'0.0201334733729'
p2584
sF1.251
S'0.10546723872'
p2585
sF2.39
S'0.00842418639935'
p2586
sF1.364
S'0.0862837828348'
p2587
sF2.325
S'0.0100359801003'
p2588
sF4.02
S'2.90990707119e-05'
p2589
sF3.856
S'5.76287436132e-05'
p2590
sF1.232
S'0.10897454206'
p2591
sF3.553
S'0.00019043223247'
p2592
sF4.43
S'4.7116544119e-06'
p2593
sF4.53
S'2.94918432289e-06'
p2594
sF2.904
S'0.00184214079996'
p2595
sF1.866
S'0.0310206827479'
p2596
sF1.734
S'0.0414590415841'
p2597
sF1.431
S'0.076215107567'
p2598
sF4.94
S'3.90612854318e-07'
p2599
sF2.571
S'0.00507026634772'
p2600
sF1.785
S'0.0371306584407'
p2601
sF2.746
S'0.0030163381812'
p2602
sF1.925
S'0.0271146791216'
p2603
sF1.418
S'0.0780953823859'
p2604
sF4.489
S'3.57791486885e-06'
p2605
sF3.586
S'0.00016789447848'
p2606
sF2.061
S'0.0196515200422'
p2607
sF1.994
S'0.0230760272589'
p2608
sF2.266
S'0.0117256916234'
p2609
sF2.992
S'0.0013857813155'
p2610
sF3.822
S'6.61868448984e-05'
p2611
sF3.058
S'0.00111409788034'
p2612
sF4.25
S'1.06885257749e-05'
p2613
sF1.657
S'0.0487597375467'
p2614
sF3.579
S'0.000172455734057'
p2615
sF2.815
S'0.00243886169463'
p2616
sF3.311
S'0.000464816042975'
p2617
sF1.781
S'0.0374562253697'
p2618
sF3.413
S'0.00032125971083'
p2619
sF4.209
S'1.2825169438e-05'
p2620
sF1.822
S'0.0342274928253'
p2621
sF4.619
S'1.92796928716e-06'
p2622
sF1.986
S'0.023516661956'
p2623
sF3.676
S'0.000118459760792'
p2624
sF1.722
S'0.0425347592472'
p2625
sF4.102
S'2.04797136655e-05'
p2626
sF4.029
S'2.80073091693e-05'
p2627
sF2.62
S'0.00439648834812'
p2628
sF3.528
S'0.000209356078322'
p2629
sF1.744
S'0.0405795449189'
p2630
sF4.84
S'6.49195642861e-07'
p2631
sF1.945
S'0.0258874891548'
p2632
sF3.197
S'0.000694324632707'
p2633
sF4.588
S'2.23756319487e-06'
p2634
sF4.06
S'2.45363579664e-05'
p2635
sF3.372
S'0.000373122241975'
p2636
sF3.358
S'0.000392543065722'
p2637
sF1.689
S'0.0456097149773'
p2638
sF1.867
S'0.0309507939258'
p2639
sF3.041
S'0.00117896915397'
p2640
sF4.398
S'5.46264895582e-06'
p2641
sF3.533
S'0.000205436235818'
p2642
sF1.063
S'0.143890975669'
p2643
sF1.691
S'0.0454184013258'
p2644
sF1.888
S'0.0295129752238'
p2645
sF3.618
S'0.000148444198262'
p2646
sF4.914
S'4.46183746522e-07'
p2647
sF1.99
S'0.0232954677502'
p2648
sF3.287
S'0.000506304168706'
p2649
sF3.156
S'0.00079974430253'
p2650
sF1.261
S'0.103654423574'
p2651
sF3.864
S'5.57726104992e-05'
p2652
sF2.237
S'0.0126431700197'
p2653
sF3.733
S'9.46062973456e-05'
p2654
sF4.603
S'2.08224114482e-06'
p2655
sF3.402
S'0.000334473189105'
p2656
sF2.26
S'0.0119106254185'
p2657
sF3.577
S'0.000173780086865'
p2658
sF1.023
S'0.153153922908'
p2659
sF3.979
S'3.46028704799e-05'
p2660
sF3.828
S'6.45943782572e-05'
p2661
sF4.833
S'6.7245393605e-07'
p2662
sF1.523
S'0.0638793527132'
p2663
sF1.1
S'0.135666060946'
p2664
sF2.664
S'0.00386087813485'
p2665
sF4.177
S'1.47689512786e-05'
p2666
sF3.823
S'6.59188897883e-05'
p2667
sF3.692
S'0.000111248732492'
p2668
sF3.905
S'4.71126925502e-05'
p2669
sF2.605
S'0.00459371299755'
p2670
sF4.259
S'1.02671735211e-05'
p2671
sF2.084
S'0.0185800836323'
p2672
sF1.022
S'0.153390450205'
p2673
sF1.674
S'0.0470652996763'
p2674
sF3.16
S'0.000788845694376'
p2675
sF1.223
S'0.110664848148'
p2676
sF4.217
S'1.23786987584e-05'
p2677
sF4.038
S'2.69544265749e-05'
p2678
sF3.365
S'0.000382718295227'
p2679
sF1.376
S'0.0844108166338'
p2680
sF3.938
S'4.10817972774e-05'
p2681
sF4.448
S'4.33367649257e-06'
p2682
sF1.101
S'0.13544832858'
p2683
sF1.782
S'0.0373746158669'
p2684
sF4.171
S'1.51632931106e-05'
p2685
sF4.168
S'1.53641967391e-05'
p2686
sF1.728
S'0.0419941121888'
p2687
sF4.204
S'1.31119468085e-05'
p2688
sF4.997
S'2.91145342732e-07'
p2689
sF1.421
S'0.0776583797224'
p2690
sF4.439
S'4.51889083078e-06'
p2691
sF2.174
S'0.0148525676004'
p2692
sF2.043
S'0.0205262190596'
p2693
sF2.315
S'0.0103064660347'
p2694
sF2.926
S'0.00171675468643'
p2695
sF1.521
S'0.0641299186598'
p2696
sF3.02
S'0.00126387342767'
p2697
sF2.751
S'0.00297068216626'
p2698
sF2.725
S'0.00321507435339'
p2699
sF3.43
S'0.000301790624609'
p2700
sF2.885
S'0.00195706830915'
p2701
sF3.656
S'0.000128090676711'
p2702
sF4.776
S'8.94081958592e-07'
p2703
sF2.866
S'0.00207847122851'
p2704
sF1.933
S'0.0266180989006'
p2705
sF2.133
S'0.0164623631001'
p2706
sF1.658
S'0.0486587331857'
p2707
sF4.227
S'1.18413833785e-05'
p2708
sF3.299
S'0.000485149556403'
p2709
sF1.016
S'0.154814693275'
p2710
sF2.619
S'0.00440939737552'
p2711
sF1.863
S'0.0312311331147'
p2712
sF1.536
S'0.0622691901731'
p2713
sF2.379
S'0.00867983798342'
p2714
sF2.431
S'0.00752860728006'
p2715
sF4.401
S'5.3876562336e-06'
p2716
sF4.926
S'4.19649985896e-07'
p2717
sF4.186
S'1.41956673462e-05'
p2718
sF4.526
S'3.00552897819e-06'
p2719
sF2.535
S'0.00562236630235'
p2720
sF1.32
S'0.0934175089935'
p2721
sF1.938
S'0.0263116112712'
p2722
sF4.596
S'2.15339348387e-06'
p2723
sF3.131
S'0.000871060802643'
p2724
sF2.986
S'0.00141326321577'
p2725
sF4.006
S'3.08778243608e-05'
p2726
sF4.816
S'7.32322614033e-07'
p2727
sF2.8
S'0.00255513033043'
p2728
sF2.669
S'0.00380387251265'
p2729
sF4.416
S'5.02720419022e-06'
p2730
sF1.129
S'0.129448916839'
p2731
sF1.818
S'0.0345320663896'
p2732
sF3.377
S'0.000366405250526'
p2733
sF1.058
S'0.145027721202'
p2734
sF3.889
S'5.03290589826e-05'
p2735
sF3.594
S'0.000162819917632'
p2736
sF2.915
S'0.00177844271301'
p2737
sF2.744
S'0.00303477689593'
p2738
sF2.48
S'0.00656911913555'
p2739
sF1.632
S'0.0513397430948'
p2740
sF3.004
S'0.00133227662501'
p2741
sF3.492
S'0.000239709123674'
p2742
sF1.726
S'0.04217370637'
p2743
sF4.316
S'7.94409892205e-06'
p2744
sF1.927
S'0.0269898149677'
p2745
sF3.667
S'0.000122706397544'
p2746
sF4.726
S'1.14492823768e-06'
p2747
sF3.475
S'0.000255426675529'
p2748
sF2.112
S'0.0173432246482'
p2749
sF3.973
S'3.5486524589e-05'
p2750
sF4.557
S'2.59447120636e-06'
p2751
sF1.123
S'0.130718747226'
p2752
sF3.607
S'0.000154878830218'
p2753
sF2.596
S'0.00471580326237'
p2754
sF3.295
S'0.000492108399139'
p2755
sF2.874
S'0.00202654481531'
p2756
sF1.65
S'0.0494714680336'
p2757
sF1.618
S'0.0528312988327'
p2758
sF3.867
S'5.50912139665e-05'
p2759
sF4.918
S'4.37164562827e-07'
p2760
sF4.265
S'9.99511009024e-06'
p2761
sF2.709
S'0.00337431698782'
p2762
sF3.451
S'0.00027925678467'
p2763
sF3.414
S'0.00032008287885'
p2764
sF3.458
S'0.000272100692166'
p2765
sF3.224
S'0.000632066998264'
p2766
sF3.119
S'0.000907329806504'
p2767
sF3.563
S'0.000183320339714'
p2768
sF3.254
S'0.000568961398979'
p2769
sF2.649
S'0.00403651658205'
p2770
sF3.697
S'0.000109081171194'
p2771
sF4.2
S'1.33457490159e-05'
p2772
sF4.269
S'9.81756344627e-06'
p2773
sF1.92
S'0.0274289497038'
p2774
sF3.872
S'5.39729761274e-05'
p2775
sF1.605
S'0.0542469023359'
p2776
sF3.541
S'0.000199306789139'
p2777
sF3.016
S'0.0012806662997'
p2778
sF4.505
S'3.31864712668e-06'
p2779
sF1.72
S'0.0427162207913'
p2780
sF1.313
S'0.0945914740867'
p2781
sF3.037
S'0.00119472727884'
p2782
sF3.273
S'0.000532062387867'
p2783
sF1.81
S'0.035147893584'
p2784
sF3.53
S'0.000207779833481'
p2785
sF3.987
S'3.34570127965e-05'
p2786
sF3.191
S'0.000708906401235'
p2787
sF4.849
S'6.20427106309e-07'
p2788
sF4.735
S'1.0952754952e-06'
p2789
sF4.449
S'4.31355081114e-06'
p2790
sF4.874
S'5.46804946251e-07'
p2791
sF2.32
S'0.0101704386687'
p2792
sF2.223
S'0.0131078999864'
p2793
sF4.284
S'9.17814558352e-06'
p2794
sF3.902
S'4.77005788299e-05'
p2795
sF1.227
S'0.109911295459'
p2796
sF4.694
S'1.33957015944e-06'
p2797
sF2.685
S'0.00362649031021'
p2798
sF4.679
S'1.44138721415e-06'
p2799
sF1.205
S'0.114101650948'
p2800
sF3.801
S'7.20566510451e-05'
p2801
sF1.35
S'0.0885079914374'
p2802
sF2.162
S'0.0153090880962'
p2803
sF1.503
S'0.0664195219966'
p2804
sF3.143
S'0.000836129200004'
p2805
sF2.584
S'0.00488308971758'
p2806
sF1.272
S'0.101686559635'
p2807
sF4.104
S'2.03033730669e-05'
p2808
sF2.398
S'0.00824243262116'
p2809
sF2.253
S'0.0121295744838'
p2810
sF4.246
S'1.08810314722e-05'
p2811
sF4.514
S'3.18081082882e-06'
p2812
sF1.354
S'0.0878681888582'
p2813
sF2.272
S'0.0115432551654'
p2814
sF4.924
S'4.23964180174e-07'
p2815
sF1.395
S'0.0815079197815'
p2816
sF2.097
S'0.0179967876711'
p2817
sF4.542
S'2.78615205843e-06'
p2818
sF4.063
S'2.42230147903e-05'
p2819
sF4.624
S'1.88204932083e-06'
p2820
sF3.727
S'9.68862292687e-05'
p2821
sF4.362
S'6.4439434993e-06'
p2822
sF2.848
S'0.0021997462284'
p2823
sF4.028
S'2.81266718428e-05'
p2824
sF2.674
S'0.00374762257539'
p2825
sF1.317
S'0.0939193122815'
p2826
sF1.302
S'0.096458192802'
p2827
sF2.553
S'0.00533997481184'
p2828
sF2.103
S'0.0177328847454'
p2829
sF3.258
S'0.00056100203171'
p2830
sF3.251
S'0.000574999288305'
p2831
sF2.83
S'0.00232740020673'
p2832
sF2.518
S'0.00590116605333'
p2833
sF1.751
S'0.039972955008'
p2834
sF1.741
S'0.0408417892611'
p2835
sF1.585
S'0.0564831671342'
p2836
sF2.789
S'0.00264355325139'
p2837
sF4.192
S'1.38252998242e-05'
p2838
sF1.894
S'0.0291125049349'
p2839
sF3.385
S'0.000355891272592'
p2840
sF3.437
S'0.000294097801756'
p2841
sF2.458
S'0.00698565870544'
p2842
sF3.098
S'0.000974157143157'
p2843
sF3.366
S'0.000381333541858'
p2844
sF1.663
S'0.0481562177468'
p2845
sF1.802
S'0.0357727027811'
p2846
sF4.193
S'1.3764472166e-05'
p2847
sF3.963
S'3.70068908626e-05'
p2848
sF4.293
S'8.81375031843e-06'
p2849
sF2.963
S'0.00152328284541'
p2850
sF3.21
S'0.00066367486144'
p2851
sF3.079
S'0.00103848340872'
p2852
sF1.305
S'0.095946423894'
p2853
sF2.668
S'0.00381521290477'
p2854
sF2.879
S'0.00199469167065'
p2855
sF3.373
S'0.00037176976318'
p2856
sF1.969
S'0.0244765455409'
p2857
sF1.649
S'0.0495738173561'
p2858
sF4.252
S'1.05934930267e-05'
p2859
sF2.124
S'0.0168350717867'
p2860
sF3.456
S'0.000274127660513'
p2861
sF3.325
S'0.000442092675155'
p2862
sF3.035
S'0.00120267843459'
p2863
sF4.493
S'3.51133923416e-06'
p2864
sF4.072
S'2.33055896926e-05'
p2865
sF4.386
S'5.77270603574e-06'
p2866
sF2.994
S'0.0013767297226'
p2867
sF1.84
S'0.0328841186592'
p2868
sF1.458
S'0.072420271508'
p2869
sF1.482
S'0.069170147482'
p2870
sF3.59
S'0.00016533898072'
p2871
sF3.3
S'0.000483424142384'
p2872
sF3.169
S'0.000764821975705'
p2873
sF1.692
S'0.0453229868124'
p2874
sF4.952
S'3.67273021895e-07'
p2875
sF1.831
S'0.0335502715391'
p2876
sF1.937
S'0.0263726716832'
p2877
sF3.877
S'5.28761791113e-05'
p2878
sF3.746
S'8.98382950855e-05'
p2879
sF1.142
S'0.126727009841'
p2880
sF3.277
S'0.000524581847054'
p2881
sF2.138
S'0.0162583716173'
p2882
sF3.546
S'0.000195563103575'
p2883
sF3.332
S'0.000431121281074'
p2884
sF2.537
S'0.00559034770723'
p2885
sF3.115
S'0.000919724549333'
p2886
sF4.382
S'5.87974046293e-06'
p2887
sF3.992
S'3.27591864045e-05'
p2888
sF4.892
S'4.99082223695e-07'
p2889
sF2.645
S'0.00408454585179'
p2890
sF2.506
S'0.00610528099117'
p2891
sF4.792
S'8.25634515906e-07'
p2892
sF3.661
S'0.000125616379418'
p2893
sF1.172
S'0.120598528076'
p2894
sF3.24
S'0.000597648497934'
p2895
sF3.213
S'0.00065678144786'
p2896
sF1.652
S'0.0492672754239'
p2897
sF3.891
S'4.99159664736e-05'
p2898
sF3.836
S'6.25272035932e-05'
p2899
sF1.217
S'0.111802107929'
p2900
sF4.547
S'2.72079991208e-06'
p2901
sF4.734
S'1.10068862687e-06'
p2902
sF3.374
S'0.000370421838611'
p2903
sF2.742
S'0.00305331708047'
p2904
sF2.397
S'0.0082649618566'
p2905
sF3.947
S'3.9568278462e-05'
p2906
sF4.998
S'2.89639925788e-07'
p2907
sF4.845
S'6.33058393941e-07'
p2908
sF4.671
S'1.49868469627e-06'
p2909
sF3.62
S'0.000147301507907'
p2910
sF4.612
S'1.99406497448e-06'
p2911
sF2.275
S'0.0114529649161'
p2912
sF4.115
S'1.93589707366e-05'
p2913
sF4.022
S'2.88530289628e-05'
p2914
sF3.221
S'0.000638720740433'
p2915
sF2.882
S'0.00197579866757'
p2916
sF1.44
S'0.0749336995343'
p2917
sF2.477
S'0.00662459509911'
p2918
sF1.269
S'0.102220532028'
p2919
sF2.056
S'0.019891258101'
p2920
sF4.847
S'6.2671213845e-07'
p2921
sF3.602
S'0.000157889182248'
p2922
sF1.474
S'0.0702407955831'
p2923
sF4.981
S'3.16282699537e-07'
p2924
sF4.957
S'3.57949883215e-07'
p2925
sF4.643
S'1.71693175391e-06'
p2926
sF3.861
S'5.64619517331e-05'
p2927
sF3.262
S'0.000553145717823'
p2928
sF4.391
S'5.64152703193e-06'
p2929
sF2.976
S'0.00146017431'
p2930
sF1.332
S'0.0914300942581'
p2931
sF1.63
S'0.0515507484901'
p2932
sF1.171
S'0.120799388576'
p2933
sF2.146
S'0.0159364893478'
p2934
sF2.548
S'0.00541712355344'
p2935
sF1.254
S'0.104921002717'
p2936
sF3.815
S'6.80914667721e-05'
p2937
sF4.35
S'6.80687659933e-06'
p2938
sF2.723
S'0.00323460289361'
p2939
sF2.726
S'0.00320534991744'
p2940
sF3.547
S'0.000194822295649'
p2941
sF4.602
S'2.09226602219e-06'
p2942
sF1.879
S'0.030122246611'
p2943
sF4.801
S'7.89376345467e-07'
p2944
sF1.377
S'0.0842561239199'
p2945
sF4.211
S'1.27121373217e-05'
p2946
sF2.004
S'0.022535030211'
p2947
sF2.969
S'0.00149385298231'
p2948
sF2.826
S'0.00235666320242'
p2949
sF4.621
S'1.9094738771e-06'
p2950
sF1.518
S'0.0645071993325'
p2951
sF1.6
S'0.0547992916996'
p2952
sF1.455
S'0.0728346307492'
p2953
sF1.753
S'0.0398010035405'
p2954
sF3.455
S'0.000275146411217'
p2955
sF3.459
S'0.000271092452326'
p2956
sF4.17
S'1.5229981948e-05'
p2957
sF3.084
S'0.00102118797737'
p2958
sF1.522
S'0.0640045403462'
p2959
sF2.351
S'0.00936151692733'
p2960
sF4.58
S'2.32487964993e-06'
p2961
sF4.821
S'7.14201786743e-07'
p2962
sF4.12
S'1.89436199506e-05'
p2963
sF4.99
S'3.01896462521e-07'
p2964
sF1.876
S'0.0303276399477'
p2965
sF2.928
S'0.00170575022596'
p2966
sF3.85
S'5.90589124189e-05'
p2967
sF1.306
S'0.0957762787859'
p2968
sF3.511
S'0.000223212199205'
p2969
sF4.129
S'1.82172201773e-05'
p2970
sF4.432
S'4.66815089379e-06'
p2971
sF2.178
S'0.0147030183763'
p2972
sF2.113
S'0.0173003839405'
p2973
sF1.61
S'0.0536989281481'
p2974
sF3.086
S'0.00101434411089'
p2975
sF3.174
S'0.00075176845388'
p2976
sF3.043
S'0.00117116166574'
p2977
sF2.291
S'0.0109817068307'
p2978
sF1.768
S'0.0385304518297'
p2979
sF3.841
S'6.12670572754e-05'
p2980
sF2.964
S'0.00151834143428'
p2981
sF4.096
S'2.10174964307e-05'
p2982
sF3.751
S'8.80653498683e-05'
p2983
sF3.33
S'0.000434229920382'
p2984
sF3.018
S'0.00127224452333'
p2985
sF1.991
S'0.0232404436242'
p2986
sF1.835
S'0.0332528447284'
p2987
sF1.073
S'0.141635558065'
p2988
sF1.216
S'0.111992461005'
p2989
sF3.885
S'5.11649441898e-05'
p2990
sF2.958
S'0.00154821061986'
p2991
sF3.866
S'5.53174686949e-05'
p2992
sF1.913
S'0.0278740262259'
p2993
sF4.359
S'6.53290564444e-06'
p2994
sF2.756
S'0.00292564984919'
p2995
sF4.669
S'1.51334689509e-06'
p2996
sF2.119
S'0.0170452334752'
p2997
sF3.496
S'0.000236144349955'
p2998
sF3.348
S'0.000406985056879'
p2999
sF3.201
S'0.000684757660586'
p3000
sF3.71
S'0.000103629623674'
p3001
sF1.277
S'0.100801123631'
p3002
sF1.235
S'0.10841525207'
p3003
sF1.978
S'0.0239643533294'
p3004
sF4.033
S'2.75346398399e-05'
p3005
sF2.99
S'0.00139488723549'
p3006
sF3.248
S'0.000581096353221'
p3007
sF3.111
S'0.00093227469661'
p3008
sF3.554
S'0.00018970960677'
p3009
sF4.728
S'1.13371092609e-06'
p3010
sF3.956
S'3.81075802908e-05'
p3011
sF1.958
S'0.0251150063469'
p3012
sF1.669
S'0.0475586899059'
p3013
sF1.154
S'0.124250084463'
p3014
sF2.086
S'0.018489311531'
p3015
sF1.351
S'0.0883477163468'
p3016
sF3.8
S'7.23480439251e-05'
p3017
sF3.669
S'0.000121750539626'
p3018
sF3.81
S'6.94833958799e-05'
p3019
sF3.796
S'7.3524748804e-05'
p3020
sF4.635
S'1.78468739953e-06'
p3021
sF3.915
S'4.52021039323e-05'
p3022
sF1.299
S'0.0969719645869'
p3023
sF4.119
S'1.90260073549e-05'
p3024
sF2.442
S'0.00730307331208'
p3025
sF3.178
S'0.000741473754239'
p3026
sF4.705
S'1.26932977133e-06'
p3027
sF2.307
S'0.0105274100539'
p3028
sF2.176
S'0.0147776302791'
p3029
sF1.068
S'0.142760255898'
p3030
sF4.858
S'5.92887048189e-07'
p3031
sF4.368
S'6.26947467409e-06'
p3032
sF1.54
S'0.0617801767118'
p3033
sF1.806
S'0.0354591697836'
p3034
sF4.393
S'5.5898563648e-06'
p3035
sF2.151
S'0.0157380998419'
p3036
sF2.02
S'0.0216916937676'
p3037
sF4.203
S'1.31700294352e-05'
p3038
sF4.8
S'7.93328151976e-07'
p3039
sF4.355
S'6.65334590594e-06'
p3040
sF1.191
S'0.11682679244'
p3041
sF3.57
S'0.000178490613905'
p3042
sF3.652
S'0.000130102942492'
p3043
sF3.874
S'5.35317060807e-05'
p3044
sF3.775
S'8.00038317511e-05'
p3045
sF4.314
S'8.01634728307e-06'
p3046
sF4.161
S'1.58428542895e-05'
p3047
sF1.113
S'0.132854214744'
p3048
sF2.439
S'0.00736398412847'
p3049
sF3.685
S'0.000114351320191'
p3050
sF2.441
S'0.00732332738343'
p3051
sF4.678
S'1.44843273286e-06'
p3052
sF2.11
S'0.0174291779377'
p3053
sF4.088
S'2.17554076743e-05'
p3054
sF2.512
S'0.00600245443403'
p3055
sF1.697
S'0.0448483302659'
p3056
sF2.091
S'0.0182640319901'
p3057
sF1.69
S'0.0455139773215'
p3058
sF2.687
S'0.00360484763733'
p3059
sF1.388
S'0.0825685225567'
p3060
sF1.809
S'0.0352255016772'
p3061
sF2.135
S'0.0163805050608'
p3062
sF1.459
S'0.0722825538452'
p3063
sF2.225
S'0.0130406190735'
p3064
sF2.924
S'0.00172782373377'
p3065
sF2.34
S'0.00964186994536'
p3066
sF2.156
S'0.0155418325779'
p3067
sF3.89
S'5.01221109962e-05'
p3068
sF3.054
S'0.00112906040421'
p3069
sF2.045
S'0.0204274290525'
p3070
sF2.933
S'0.00167851945996'
p3071
sF2.095
S'0.0180854962402'
p3072
sF2.802
S'0.00253934368167'
p3073
sF1.736
S'0.0412819172814'
p3074
sF2.471
S'0.0067367909369'
p3075
sF4.908
S'4.60049273284e-07'
p3076
sF2.663
S'0.0038723707064'
p3077
sF3.048
S'0.00115184963699'
p3078
sF1.452
S'0.0732508026203'
p3079
sF1.504
S'0.0662906833689'
p3080
sF1.343
S'0.0896359869229'
p3081
sF4.661
S'1.57338361849e-06'
p3082
sF3.223
S'0.000634277768575'
p3083
sF1.451
S'0.0733899301047'
p3084
sF4.867
S'5.66525145214e-07'
p3085
sF1.798
S'0.0360885038859'
p3086
sF4.136
S'1.76706094638e-05'
p3087
sF2.75
S'0.00297976323505'
p3088
sF1.708
S'0.0438181712383'
p3089
sF2.43
S'0.00754941141631'
p3090
sF4.687
S'1.38619483525e-06'
p3091
sF3.469
S'0.00026119972703'
p3092
sF3.338
S'0.000421918746914'
p3093
sF1.499
S'0.0669368160297'
p3094
sF4.097
S'2.09269451293e-05'
p3095
sF3.839
S'6.17682153133e-05'
p3096
sF3.138
S'0.000850524384854'
p3097
sF3.5
S'0.000232629079036'
p3098
sF3.007
S'0.00131919881473'
p3099
sF4.628
S'1.84607008514e-06'
p3100
sF4.146
S'1.69166912448e-05'
p3101
sF4.848
S'6.23562004936e-07'
p3102
sF4.646
S'1.69216500701e-06'
p3103
sF3.272
S'0.000533947880302'
p3104
sF2.728
S'0.00318598040126'
p3105
sF1.973
S'0.024247781169'
p3106
sF3.253
S'0.000570967485902'
p3107
sF3.631
S'0.000141162592274'
p3108
sF3.333
S'0.000429574711899'
p3109
sF3.428
S'0.000304022729905'
p3110
sF2.126
S'0.0167516297673'
p3111
sF3.097
S'0.000977449369312'
p3112
sF1.091
S'0.137636441295'
p3113
sF4.799
S'7.97298972752e-07'
p3114
sF1.931
S'0.0267415262084'
p3115
sF3.824
S'6.56519571149e-05'
p3116
sF4.056
S'2.49601295946e-05'
p3117
sF3.816
S'6.78162518122e-05'
p3118
sF4.223
S'1.20535909952e-05'
p3119
sF4.466
S'3.98478047255e-06'
p3120
sF1.013
S'0.155530080465'
p3121
sF3.212
S'0.000659071876569'
p3122
sF4.095
S'2.1108419391e-05'
p3123
sF3.83
S'6.40716294889e-05'
p3124
sF3.518
S'0.000217406181319'
p3125
sF2.961
S'0.00153320969556'
p3126
sF2.622
S'0.00437077154993'
p3127
sF3.789
S'7.56274569208e-05'
p3128
sF4.015
S'2.97228973981e-05'
p3129
sF4.453
S'4.23393772908e-06'
p3130
sF4.371
S'6.18393964636e-06'
p3131
sF2.92
S'0.00175015692868'
p3132
sF4.425
S'4.82211416066e-06'
p3133
sF3.029
S'0.00122682341492'
p3134
sF1.158
S'0.123432018207'
p3135
sF1.359
S'0.0870732943527'
p3136
sF1.314
S'0.0944231021146'
p3137
sF1.557
S'0.0597352427061'
p3138
sF3.439
S'0.000291933617011'
p3139
sF2.034
S'0.0209757977262'
p3140
sF2.531
S'0.00568689242974'
p3141
sF3.748
S'8.9125127184e-05'
p3142
sF1.623
S'0.0522947024339'
p3143
sF4.633
S'1.8020226949e-06'
p3144
sF3.052
S'0.00113661050425'
p3145
sF1.05
S'0.146859056376'
p3146
sF3.571
S'0.000177810447563'
p3147
sF4.983
S'3.13029753121e-07'
p3148
sF4.145
S'1.69906855086e-05'
p3149
sF1.265
S'0.102935663935'
p3150
sF1.04
S'0.149169950331'
p3151
sF4.555
S'2.61927891651e-06'
p3152
sF3.994
S'3.24839316095e-05'
p3153
sF4.655
S'1.61990353529e-06'
p3154
sF1.701
S'0.0444714935933'
p3155
sF2.857
S'0.00213832919065'
p3156
sF2.593
S'0.00475713852939'
p3157
sF1.131
S'0.129027545716'
p3158
sF3.314
S'0.000459857536165'
p3159
sF1.495
S'0.0674572210711'
p3160
sF2.349
S'0.00941195340518'
p3161
sF2.561
S'0.0052185678096'
p3162
sF1.225
S'0.110287610253'
p3163
sF2.85
S'0.00218596145491'
p3164
sF2.836
S'0.0022841223006'
p3165
sF2.099
S'0.0179084503666'
p3166
sF4.614
S'1.97496211404e-06'
p3167
sF1.383
S'0.0833324329463'
p3168
sF1.296
S'0.0974877424453'
p3169
sF2.405
S'0.0080862328921'
p3170
sF1.122
S'0.130931219952'
p3171
sF2.807
S'0.00250026208494'
p3172
sF1.361
S'0.0867568447272'
p3173
sF3.707
S'0.000104864471435'
p3174
sF1.318
S'0.0937518239558'
p3175
sF4.394
S'5.56419076253e-06'
p3176
sF4.741
S'1.06332966485e-06'
p3177
sF1.571
S'0.0580913243954'
p3178
sF2.219
S'0.0132433622669'
p3179
sF1.175
S'0.119997357899'
p3180
sF2.651
S'0.00401269207092'
p3181
sF2.52
S'0.00586774171533'
p3182
sF4.173
S'1.50307470862e-05'
p3183
sF3.929
S'4.26499197742e-05'
p3184
sF2.015
S'0.0219523245377'
p3185
sF2.189
S'0.0142984200093'
p3186
sF4.408
S'5.21647726412e-06'
p3187
sF4.38
S'5.93396544562e-06'
p3188
sF3.255
S'0.000566961829253'
p3189
sF4.808
S'7.62238829194e-07'
p3190
sF2.513
S'0.00598546674611'
p3191
sF2.766
S'0.00283742674025'
p3192
sF2.675
S'0.00373646250932'
p3193
sF1.363
S'0.0864412553059'
p3194
sF2.868
S'0.0020653776669'
p3195
sF4.744
S'1.04769423869e-06'
p3196
sF2.435
S'0.00744589485059'
p3197
sF4.154
S'1.63356586677e-05'
p3198
sF2.922
S'0.00173895770253'
p3199
sF2.369
S'0.00891812672892'
p3200
sF4.564
S'2.50940392663e-06'
p3201
sF2.667
S'0.00382658359345'
p3202
sF4.326
S'7.5920710883e-06'
p3203
sF2.591
S'0.00478487457574'
p3204
sF3.259
S'0.000559028339471'
p3205
sF2.716
S'0.00330379590234'
p3206
sF3.056
S'0.00112155627962'
p3207
sF2.718
S'0.00328389190685'
p3208
sF1.976
S'0.0240773886013'
p3209
sF1.709
S'0.0437254747396'
p3210
sF4.906
S'4.64762621605e-07'
p3211
sF2.423
S'0.00769646334036'
p3212
sF3.764
S'8.36084414141e-05'
p3213
sF2.614
S'0.00447445182626'
p3214
sF3.628
S'0.000142812630532'
p3215
sF3.433
S'0.000298471048986'
p3216
sF1.276
S'0.100977759547'
p3217
sF2.333
S'0.0098240726582'
p3218
sF3.549
S'0.000193348540219'
p3219
sF4.974
S'3.2792654309e-07'
p3220
sF1.832
S'0.0334757103052'
p3221
sF1.034
S'0.150568081617'
p3222
sF4.384
S'5.82598863146e-06'
p3223
sF1.507
S'0.0659053286012'
p3224
sF4.4
S'5.4125439077e-06'
p3225
sF3.146
S'0.00082760002839'
p3226
sF3.548
S'0.000194084110714'
p3227
sF4.695
S'1.33303362073e-06'
p3228
sF1.712
S'0.0434483342303'
p3229
sF4.613
S'1.98449151392e-06'
p3230
sF3.217
S'0.00064769299373'
p3231
sF4.946
S'3.78769793116e-07'
p3232
sF4.321
S'7.76618369275e-06'
p3233
sF2.283
S'0.0112151841803'
p3234
sF3.261
S'0.000555100201437'
p3235
sF2.61
S'0.00452711113297'
p3236
sF3.488
S'0.000243324039462'
p3237
sF1.017
S'0.154576714706'
p3238
sF2.93
S'0.00169481001928'
p3239
sF2.693
S'0.00354061345082'
p3240
sF3.969
S'3.60874409339e-05'
p3241
sF3.838
S'6.20202411155e-05'
p3242
sF2.983
S'0.00142718997167'
p3243
sF4.197
S'1.35236966691e-05'
p3244
sF1.838
S'0.0330312026549'
p3245
sF1.095
S'0.136758318241'
p3246
sF4.302
S'8.46316558327e-06'
p3247
sF4.151
S'1.6551288302e-05'
p3248
sF3.551
S'0.000191885208463'
p3249
sF1.642
S'0.0502950020416'
p3250
sF1.417
S'0.0782414637365'
p3251
sF3.772
S'8.09721280682e-05'
p3252
sF3.351
S'0.00040260151195'
p3253
sF3.54
S'0.000200063516007'
p3254
sF3.795
S'7.38217281097e-05'
p3255
sF3.753
S'8.73654275291e-05'
p3256
sF1.515
S'0.0648862020582'
p3257
sF1.872
S'0.0306033017558'
p3258
sF3.114
S'0.000922847449102'
p3259
sF2.775
S'0.00276008539126'
p3260
sF4.573
S'2.4039506962e-06'
p3261
sF3.928
S'4.28276055172e-05'
p3262
sF3.005
S'0.00132790424732'
p3263
sF3.597
S'0.000160954241766'
p3264
sF1.14
S'0.127143150563'
p3265
sF2.909
S'0.00181293429985'
p3266
sF1.341
S'0.0899602262995'
p3267
sF4.069
S'2.36076736631e-05'
p3268
sF4.122
S'1.87798600443e-05'
p3269
sF2.488
S'0.00642318665179'
p3270
sF1.801
S'0.0358514399803'
p3271
sF1.247
S'0.106198748785'
p3272
sF4.532
S'2.92139249657e-06'
p3273
sF4.942
S'3.86626079421e-07'
p3274
sF3.712
S'0.000102813993663'
p3275
sF2.06
S'0.0196992704094'
p3276
sF1.664
S'0.0480562146959'
p3277
sF4.299
S'8.57852363084e-06'
p3278
sF2.104
S'0.0176892235049'
p3279
sF1.032
S'0.151036058752'
p3280
sF1.868
S'0.0308810354643'
p3281
sF2.501
S'0.00619215892033'
p3282
sF4.911
S'4.53065440663e-07'
p3283
sF4.491
S'3.54447755697e-06'
p3284
sF3.958
S'3.77899788874e-05'
p3285
sF2.562
S'0.00520356592471'
p3286
sF1.643
S'0.0501914666304'
p3287
sF4.791
S'8.29760633086e-07'
p3288
sF4.524
S'3.03408620269e-06'
p3289
sF3.767
S'8.26105004398e-05'
p3290
sF1.609
S'0.0538081708126'
p3291
sF2.472
S'0.0067179758163'
p3292
sF2.543
S'0.00549526145553'
p3293
sF3.792
S'7.47194570817e-05'
p3294
sF1.084
S'0.13918239942'
p3295
sF1.077
S'0.140740132846'
p3296
sF2.063
S'0.0195563140895'
p3297
sF1.676
S'0.0468690963055'
p3298
sF2.659
S'0.0039186481499'
p3299
sF3.951
S'3.89126622234e-05'
p3300
sF2.609
S'0.00454036211762'
p3301
sF4.099
S'2.07469517915e-05'
p3302
sF2.64
S'0.00414530136104'
p3303
sF1.3
S'0.0968004845856'
p3304
sF4.311
S'8.12589528067e-06'
p3305
sF1.636
S'0.050919793698'
p3306
sF3.015
S'0.0012848962784'
p3307
sF3.501
S'0.0002317579219'
p3308
sF4.721
S'1.17343969482e-06'
p3309
sF1.654
S'0.049063756353'
p3310
sF4.031
S'2.77700218451e-05'
p3311
sF2.677
S'0.00371423174848'
p3312
sF3.065
S'0.00108834998565'
p3313
sF2.382
S'0.00860944872589'
p3314
sF2.019
S'0.0217436097532'
p3315
sF2.758
S'0.00290780989558'
p3316
sF3.087
S'0.00101093798353'
p3317
sF1.08
S'0.140071090089'
p3318
sF1.441
S'0.074792341395'
p3319
sF2.73
S'0.00316671627736'
p3320
sF2.942
S'0.00163049963501'
p3321
sF2.682
S'0.00365917298893'
p3322
sF1.799
S'0.0360093403558'
p3323
sF2.905
S'0.00183626550109'
p3324
sF4.238
S'1.12759884669e-05'
p3325
sF4.835
S'6.6572817603e-07'
p3326
sF3.307
S'0.000471504460079'
p3327
sF3.176
S'0.000746604756137'
p3328
sF1.839
S'0.0329575930352'
p3329
sF1.153
S'0.124455192251'
p3330
sF1.114
S'0.132639593326'
p3331
sF4.441
S'4.47708974461e-06'
p3332
sF2.845
S'0.00222057115311'
p3333
sF4.851
S'6.14202731786e-07'
p3334
sF3.151
S'0.000813562451218'
p3335
sF4.599
S'2.12261891264e-06'
p3336
sF4.071
S'2.34058747343e-05'
p3337
sF4.261
S'1.01757116603e-05'
p3338
sF1.544
S'0.0612941663106'
p3339
sF2.546
S'0.00544825941753'
p3340
sF1.366
S'0.085969481695'
p3341
sF4.81
S'7.54651479146e-07'
p3342
sF1.613
S'0.0533722538944'
p3343
sF4.91
S'4.55381964841e-07'
p3344
sF1.814
S'0.0348388628827'
p3345
sF4.22
S'1.22151159253e-05'
p3346
sF3.441
S'0.00028978426645'
p3347
sF1.044
S'0.148242694816'
p3348
sF3.843
S'6.07697343826e-05'
p3349
sF1.909
S'0.0281310458332'
p3350
sF4.706
S'1.26312258454e-06'
p3351
sF4.73
S'1.12259918544e-06'
p3352
sF3.512
S'0.000222373999509'
p3353
sF1.999
S'0.0228041769327'
p3354
sF1.486
S'0.0686395604992'
p3355
sF4.796
S'8.09326397578e-07'
p3356
sF2.251
S'0.0121927686888'
p3357
sF2.89
S'0.00192620913219'
p3358
sF3.556
S'0.000188272037952'
p3359
sF2.456
S'0.00702465787162'
p3360
sF3.778
S'7.90464395207e-05'
p3361
sF1.959
S'0.0250563933924'
p3362
sF3.225
S'0.000629863343998'
p3363
sF2.661
S'0.00389544785618'
p3364
sF3.519
S'0.000216588353869'
p3365
sF1.805
S'0.0355373410165'
p3366
sF4.63
S'1.82832866352e-06'
p3367
sF3.933
S'4.1946118862e-05'
p3368
sF3.802
S'7.17663636469e-05'
p3369
sF4.45
S'4.29351446997e-06'
p3370
sF1.774
S'0.0380315751554'
p3371
sF4.86
S'5.86928764467e-07'
p3372
sF1.126
S'0.130082759662'
p3373
sF3.646
S'0.000133176987196'
p3374
sF1.052
S'0.146399774815'
p3375
sF2.038
S'0.0207749664359'
p3376
sF4.999
S'2.88142014146e-07'
p3377
sF1.581
S'0.0569390188677'
p3378
sF2.366
S'0.00899072220714'
p3379
sF3.717
S'0.000100801221689'
p3380
sF1.2
S'0.115069670222'
p3381
sF1.11
S'0.133499513243'
p3382
sF3.92
S'4.42744843121e-05'
p3383
sF3.071
S'0.00106671575454'
p3384
sF4.309
S'8.19971841344e-06'
p3385
sF3.892
S'4.97106225008e-05'
p3386
sF2.706
S'0.00340495229838'
p3387
sF3.761
S'8.46177149928e-05'
p3388
sF4.659
S'1.58874601376e-06'
p3389
sF3.226
S'0.000627666785069'
p3390
sF1.267
S'0.102577644946'
p3391
sF2.153
S'0.0156593392687'
p3392
sF1.434
S'0.0757861314251'
p3393
sF2.764
S'0.0028548769651'
p3394
sF1.345
S'0.0893126172843'
p3395
sF1.092
S'0.13741655059'
p3396
sF2.302
S'0.0106675860886'
p3397
sF4.889
S'5.06747478713e-07'
p3398
sF2.239
S'0.0125779580788'
p3399
sF1.761
S'0.0391192014997'
p3400
sF2.329
S'0.00992953285103'
p3401
sF1.036
S'0.150101071258'
p3402
sF4.229
S'1.17366173024e-05'
p3403
sF2.931
S'0.0016893639074'
p3404
sF2.243
S'0.0124484072521'
p3405
sF2.352
S'0.00933638746868'
p3406
sF3.136
S'0.000856346018396'
p3407
sF1.237
S'0.108043541314'
p3408
sF4.778
S'8.85236905395e-07'
p3409
sF2.82
S'0.00240118247419'
p3410
sF4.254
S'1.04992650101e-05'
p3411
sF4.188
S'1.40711758437e-05'
p3412
sF1.563
S'0.0590262974112'
p3413
sF2.489
S'0.00640514828754'
p3414
sF2.147
S'0.0158966408077'
p3415
sF4.598
S'2.13282997562e-06'
p3416
sF2.31
S'0.010444077062'
p3417
sF4.008
S'3.0617560175e-05'
p3418
sF1.491
S'0.0679807474541'
p3419
sF2.202
S'0.0138326542345'
p3420
sF2.824
S'0.00237141924388'
p3421
sF1.589
S'0.0560301963546'
p3422
sF1.604
S'0.054357026301'
p3423
sF1.472
S'0.0705104387879'
p3424
sF4.967
S'3.3998294078e-07'
p3425
sF4.977
S'3.22886608535e-07'
p3426
sF2.448
S'0.0071825827795'
p3427
sF2.3
S'0.0107241100217'
p3428
sF1.228
S'0.109723483989'
p3429
sF4.898
S'4.84085174892e-07'
p3430
sF4.418
S'4.98092104825e-06'
p3431
sF1.288
S'0.0988729815911'
p3432
sF1.531
S'0.0628846963253'
p3433
sF3.025
S'0.00124316563664'
p3434
sF4.664
S'1.5506068984e-06'
p3435
sF4.828
S'6.89555468499e-07'
p3436
sF3.853
S'5.83396952348e-05'
p3437
sF2.694
S'0.0035300082356'
p3438
sF1.483
S'0.0690372053853'
p3439
sF2.563
S'0.00518860242546'
p3440
sF1.926
S'0.0270521869226'
p3441
sF3.159
S'0.000791557452001'
p3442
sF2.738
S'0.00309070379614'
p3443
sF2.298
S'0.0107808945637'
p3444
sF4.377
S'6.01619871874e-06'
p3445
sF3.14
S'0.000844739173459'
p3446
sF2.407
S'0.0080420849319'
p3447
sF4.787
S'8.46464170344e-07'
p3448
sF3.609
S'0.000153689804879'
p3449
sF3.315
S'0.000458215623146'
p3450
sF2.809
S'0.00248478232943'
p3451
sF2.71
S'0.00336416040667'
p3452
sF1.904
S'0.0284550920914'
p3453
sF3.18
S'0.000736375261554'
p3454
sF2.541
S'0.00552679597609'
p3455
sF2.415
S'0.00786760484467'
p3456
sF3.12
S'0.000904255199822'
p3457
sF3.516
S'0.000219050492105'
p3458
sF3.561
S'0.000184722541737'
p3459
sF3.062
S'0.00109931726301'
p3460
sF3.409
S'0.000326007398517'
p3461
sF4.054
S'2.51746080472e-05'
p3462
sF4.651
S'1.65164664398e-06'
p3463
sF1.003
S'0.157930430625'
p3464
sF3.405
S'0.000330820268993'
p3465
sF4.691
S'1.35936485638e-06'
p3466
sF4.607
S'2.04260000923e-06'
p3467
sF1.477
S'0.0698378186386'
p3468
sF2.001
S'0.0226961949456'
p3469
sF4.507
S'3.28753167847e-06'
p3470
sF1.208
S'0.113523631173'
p3471
sF4.017
S'2.94718620579e-05'
p3472
sF4.415
S'5.05049951461e-06'
p3473
sF4.137
S'1.75938054754e-05'
p3474
sF3.345
S'0.000411412851953'
p3475
sF1.014
S'0.155291376147'
p3476
sF4.046
S'2.60501163536e-05'
p3477
sF4.625
S'1.87299200556e-06'
p3478
sF3.651
S'0.000130610619997'
p3479
sF3.52
S'0.000215773399295'
p3480
sF1.104
S'0.134796568845'
p3481
sF1.982
S'0.0237396203242'
p3482
sF1.941
S'0.0261291386857'
p3483
sF3.189
S'0.000713829388213'
p3484
sF2.053
S'0.0200362887536'
p3485
sF2.731
S'0.00315712358218'
p3486
sF1.137
S'0.127769142831'
p3487
sF3.655
S'0.000128590988967'
p3488
sF1.053
S'0.146170496039'
p3489
sF4.286
S'9.09594934024e-06'
p3490
sF4.407
S'5.24060940667e-06'
p3491
sF3.435
S'0.000296276914351'
p3492
sF1.163
S'0.122414751211'
p3493
sF3.922
S'4.39084961089e-05'
p3494
sF3.61
S'0.000153098502574'
p3495
sF4.864
S'5.75184564739e-07'
p3496
sF4.719
S'1.18503410095e-06'
p3497
sF2.067
S'0.0193670769788'
p3498
sF1.368
S'0.0856560380538'
p3499
sF3.732
S'9.49827508098e-05'
p3500
sF4.899
S'4.81628222154e-07'
p3501
sF3.989
S'3.31762108261e-05'
p3502
sF3.694
S'0.000110376900434'
p3503
sF3.84
S'6.15171551833e-05'
p3504
sF3.725
S'9.76576109919e-05'
p3505
sF1.204
S'0.114294789273'
p3506
sF4.696
S'1.32652769913e-06'
p3507
sF4.587
S'2.24830340586e-06'
p3508
sF4.325
S'7.62659311715e-06'
p3509
sF2.117
S'0.0171299238967'
p3510
sF4.106
S'2.01284739475e-05'
p3511
sF4.206
S'1.2996511591e-05'
p3512
sF2.838
S'0.00226985913187'
p3513
sF4.516
S'3.15093320192e-06'
p3514
sF3.177
S'0.000744035179893'
p3515
sF3.971
S'3.57857896487e-05'
p3516
sF2.759
S'0.00289892674849'
p3517
sF4.421
S'4.91225868975e-06'
p3518
sF4.817
S'7.2866344228e-07'
p3519
sF2.232
S'0.0128074814665'
p3520
sF1.096
S'0.136539387237'
p3521
sF2.399
S'0.0082199573461'
p3522
sF4.475
S'3.82056563565e-06'
p3523
sF2.604
S'0.00460713783942'
p3524
sF1.45
S'0.0735292596096'
p3525
sF2.207
S'0.0136570296711'
p3526
sF2.054
S'0.019987845855'
p3527
sF1.141
S'0.126934961498'
p3528
sF2.309
S'0.0104717906213'
p3529
sF3.759
S'8.52969189049e-05'
p3530
sF4.578
S'2.34721346796e-06'
p3531
sF1.517
S'0.064633342016'
p3532
sF3.93
S'4.24729307888e-05'
p3533
sF1.79
S'0.0367269556987'
p3534
sF3.185
S'0.000723770041202'
p3535
sF4.746
S'1.03739355479e-06'
p3536
sF2.322
S'0.0101164678149'
p3537
sF4.499
S'3.41369288059e-06'
p3538
sF1.95
S'0.0255880595216'
p3539
sF3.699
S'0.000108225300491'
p3540
sF1.857
S'0.0316555770414'
p3541
sF4.885
S'5.17144269091e-07'
p3542
sF2.899
S'0.00187177447133'
p3543
sF2.166
S'0.0151555934693'
p3544
sF4.295
S'8.73466682987e-06'
p3545
sF1.155
S'0.124045213233'
p3546
sF2.216
S'0.0133457510717'
p3547
sF4.762
S'9.5841841325e-07'
p3548
sF2.464
S'0.00686980557178'
p3549
sF1.496
S'0.067326827588'
p3550
sF2.743
S'0.00304403427428'
p3551
sF2.374
S'0.00879827524409'
p3552
sF1.487
S'0.0685074054735'
p3553
sF3.32
S'0.000450087240592'
p3554
sF3.129
S'0.000877011541518'
p3555
sF1.38
S'0.083793322415'
p3556
sF2.129
S'0.0166271302011'
p3557
sF2.858
S'0.00213160195762'
p3558
sF1.409
S'0.0794175840669'
p3559
sF4.074
S'2.31062406435e-05'
p3560
sF3.97
S'3.59363159029e-05'
p3561
sF4.748
S'1.02719018238e-06'
p3562
sF3.033
S'0.00121067800062'
p3563
sF1.335
S'0.0909381732253'
p3564
sF1.86
S'0.0314427629808'
p3565
sF1.763
S'0.0389502448322'
p3566
sF4.525
S'3.01977528514e-06'
p3567
sF4.018
S'2.93470986097e-05'
p3568
sF1.683
S'0.0461875457118'
p3569
sF3.104
S'0.000954616654794'
p3570
sF2.579
S'0.00495433933385'
p3571
sF3.279
S'0.000520878179533'
p3572
sF1.471
S'0.0706455584362'
p3573
sF1.242
S'0.107118281024'
p3574
sF2.817
S'0.00242372628388'
p3575
sF4.484
S'3.66283309413e-06'
p3576
sF1.187
S'0.117613810254'
p3577
sF1.655
S'0.0489622489539'
p3578
sF3.598
S'0.000160336809484'
p3579
sF3.633
S'0.000140072509145'
p3580
sF4.894
S'4.94034191369e-07'
p3581
sF3.525
S'0.000211741395723'
p3582
sF1.098
S'0.136102244636'
p3583
sF4.304
S'8.38708313297e-06'
p3584
sF3.103
S'0.000957848201828'
p3585
sF1.412
S'0.0789749805912'
p3586
sF1.301
S'0.0966292273634'
p3587
sF2.72
S'0.00326409581589'
p3588
sF2.081
S'0.0187169530288'
p3589
sF3.659
S'0.000126600670109'
p3590
sF1.22
S'0.111232437448'
p3591
sF1.797
S'0.03616780988'
p3592
sF2.455
S'0.00704422941866'
p3593
sF2.075
S'0.0189932673857'
p3594
sF2.538
S'0.00557439922212'
p3595
sF3.328
S'0.000437359332317'
p3596
sF2.907
S'0.00182456598867'
p3597
sF2.588
S'0.00482674903384'
p3598
sF4.47
S'3.91097986028e-06'
p3599
sF3.309
S'0.000468149185585'
p3600
sF1.723
S'0.0424442625185'
p3601
sF2.555
S'0.00530938989888'
p3602
sF3.948
S'3.9403402325e-05'
p3603
sF3.267
S'0.0005434684018'
p3604
sF2.25
S'0.012224472655'
p3605
sF3.484
S'0.000246989743966'
p3606
sF3.606
S'0.000155476567543'
p3607
sF4.714
S'1.21450330958e-06'
p3608
sF1.923
S'0.027240024929'
p3609
sF2.598
S'0.00468842469803'
p3610
sF2.578
S'0.0049686998981'
p3611
sF4.995
S'2.9417883706e-07'
p3612
sF4.342
S'7.05957666302e-06'
p3613
sF2.206
S'0.0136919998541'
p3614
sF1.749
S'0.040145509705'
p3615
sF3.73
S'9.57398852689e-05'
p3616
sF2.01
S'0.0222155944294'
p3617
sF2.083
S'0.0186256117797'
p3618
sF4.673
S'1.48415883384e-06'
p3619
sF4.009
S'3.0488208284e-05'
p3620
sF4.231
S'1.16327336007e-05'
p3621
sF4.083
S'2.2229011498e-05'
p3622
sF3.881
S'5.201392049e-05'
p3623
sF3.443
S'0.000287649656932'
p3624
sF2.358
S'0.00918684647895'
p3625
sF4.023
S'2.87307482248e-05'
p3626
sF1.264
S'0.103115013476'
p3627
sF3.063
S'0.00109565029938'
p3628
sF4.565
S'2.4974717016e-06'
p3629
sF1.304
S'0.0961167911864'
p3630
sF4.915
S'4.43912297725e-07'
p3631
sF3.689
S'0.000112568609613'
p3632
sF4.301
S'8.5014530127e-06'
p3633
sF1.635
S'0.0510245238112'
p3634
sF4.253
S'1.05462788306e-05'
p3635
sF1.327
S'0.0922543413327'
p3636
sF2.125
S'0.0167933064484'
p3637
sF1.202
S'0.114681764044'
p3638
sF4.6
S'2.1124547025e-06'
p3639
sF2.215
S'0.0133800322609'
p3640
sF4.803
S'7.81529427164e-07'
p3641
sF1.532
S'0.0627612173777'
p3642
sF4.745
S'1.04253167758e-06'
p3643
sF2.196
S'0.0140459716923'
p3644
sF3.505
S'0.000228303641627'
p3645
sF4.623
S'1.89114861411e-06'
p3646
sF2.12
S'0.0170030226476'
p3647
sF2.171
S'0.0149655861888'
p3648
sF1.567
S'0.0585573458074'
p3649
sF3.382
S'0.000359800723094'
p3650
sF1.454
S'0.0729731530968'
p3651
sF4.172
S'1.50968818531e-05'
p3652
sF4.582
S'2.3027494755e-06'
p3653
sF2.321
S'0.0101434219252'
p3654
sF4.682
S'1.42044740631e-06'
p3655
sF2.792
S'0.00261916780599'
p3656
sF1.737
S'0.041193585435'
p3657
sF4.868
S'5.63666651407e-07'
p3658
sF1.577
S'0.0573977625384'
p3659
sF2.242
S'0.0124806861529'
p3660
sF3.513
S'0.000221538738408'
p3661
sF2.932
S'0.00168393373471'
p3662
sF1.346
S'0.0891512582911'
p3663
sF2.637
S'0.00418214157963'
p3664
sF4.428
S'4.75554508361e-06'
p3665
sF2.342
S'0.00959035746203'
p3666
sF2.707
S'0.00339471286909'
p3667
sF2.576
S'0.00499753231574'
p3668
sF2.702
S'0.00344618811914'
p3669
sF4.992
S'2.98786276027e-07'
p3670
sF2.627
S'0.00430706670192'
p3671
sF4.402
S'5.36287784947e-06'
p3672
sF4.347
S'6.90061096685e-06'
p3673
sF3.153
S'0.000808009034209'
p3674
sF4.812
S'7.47136769422e-07'
p3675
sF1.66
S'0.0484572262667'
p3676
sF2.052
S'0.0200848312076'
p3677
sF4.222
S'1.21072054977e-05'
p3678
sF1.391
S'0.082112713376'
p3679
sF1.717
S'0.0429895859945'
p3680
sF1.845
S'0.032518769306'
p3681
sF1.319
S'0.0935845562343'
p3682
sF4.236
S'1.13768387963e-05'
p3683
sF3.399
S'0.000338163581788'
p3684
sF2.978
S'0.00145067992343'
p3685
sF2.666
S'0.00383798464822'
p3686
sF2.497
S'0.00626244783522'
p3687
sF1.041
S'0.148937774118'
p3688
sF2.547
S'0.00543267165974'
p3689
sF3.702
S'0.000106953309134'
p3690
sF1.968
S'0.0245340188552'
p3691
sF3.243
S'0.000591391055939'
p3692
sF3.407
S'0.000328405635064'
p3693
sF4.838
S'6.55760708075e-07'
p3694
sF2.912
S'0.00179561317734'
p3695
sF2.781
S'0.00270958685803'
p3696
sF3.302
S'0.000479990350776'
p3697
sF4.76
S'9.67964796033e-07'
p3698
sF3.918
S'4.46433531391e-05'
p3699
sF1.89
S'0.0293789800404'
p3700
sF4.289
S'8.97396865592e-06'
p3701
sF3.489
S'0.00024241557446'
p3702
sF1.524
S'0.0637543555959'
p3703
sF1.392
S'0.0819611989776'
p3704
sF4.181
S'1.45114932111e-05'
p3705
sF2.066
S'0.0194142397934'
p3706
sF3.027
S'0.00123496979191'
p3707
sF1.762
S'0.0390346487406'
p3708
sF2.715
S'0.003313788523'
p3709
sF4.591
S'2.20563668445e-06'
p3710
sF1.979
S'0.0239080031321'
p3711
sF3.202
S'0.000682384990342'
p3712
sF2.612
S'0.00450071270674'
p3713
sF3.604
S'0.000156678527384'
p3714
sF3.464
S'0.000266103255338'
p3715
sF2.317
S'0.0102518658834'
p3716
sF4.98
S'3.17921366185e-07'
p3717
sF1.078
S'0.140516878067'
p3718
sF1.696
S'0.0449429400313'
p3719
sF3.779
S'7.87297121251e-05'
p3720
sF4.14
S'1.73652910736e-05'
p3721
sF4.55
S'2.68229577964e-06'
p3722
sF3.448
S'0.000282377018663'
p3723
sF3.317
S'0.000454948082544'
p3724
sF4.96
S'3.52465898176e-07'
p3725
sF1.905
S'0.0283900355519'
p3726
sF1.005
S'0.15744842493'
p3727
sF3.878
S'5.26593586845e-05'
p3728
sF2.739
S'0.00308131867205'
p3729
sF3.894
S'4.93023245969e-05'
p3730
sF1.629
S'0.0516565094751'
p3731
sF2.917
S'0.001767078864'
p3732
sF4.925
S'4.21801771194e-07'
p3733
sF3.215
S'0.00065222261116'
p3734
sF1.983
S'0.0236837147696'
p3735
sF4.905
S'4.67136696541e-07'
p3736
sF1.659
S'0.0485578961513'
p3737
sF4.538
S'2.83951302205e-06'
p3738
sF4.263
S'1.00850259255e-05'
p3739
sF4.001
S'3.15376789335e-05'
p3740
sF3.738
S'9.27449734118e-05'
p3741
sF3.121
S'0.000901190170964'
p3742
sF3.133
S'0.000865147210854'
p3743
sF2.195
S'0.0140817988707'
p3744
sF2.776
S'0.00275161042307'
p3745
sF2.13
S'0.0165858066836'
p3746
sF4.201
S'1.32869295653e-05'
p3747
sF4.27
S'9.77364837292e-06'
p3748
sF2.481
S'0.006550718654'
p3749
sF3.809
S'6.97649789389e-05'
p3750
sF4.68
S'1.43437458442e-06'
p3751
sF4.78
S'8.76475972929e-07'
p3752
sF3.984
S'3.38824361376e-05'
p3753
sF4.214
S'1.25443642223e-05'
p3754
sF4.686
S'1.39298131102e-06'
p3755
sF4.19
S'1.39477227269e-05'
p3756
sF4.843
S'6.39466443537e-07'
p3757
sF2.376
S'0.00875073140566'
p3758
sF1.168
S'0.121403382445'
p3759
sF4.9
S'4.7918327659e-07'
p3760
sF2.545
S'0.00546388691232'
p3761
sF4.7
S'1.30080745392e-06'
p3762
sF4.047
S'2.59391206449e-05'
p3763
sF2.51
S'0.00603655808041'
p3764
sF4.739
S'1.07387752261e-06'
p3765
sF2.089
S'0.0183538615851'
p3766
sF1.578
S'0.0572828049018'
p3767
sF1.109
S'0.133715090992'
p3768
sF3.686
S'0.00011390317493'
p3769
sF2.105
S'0.017645654031'
p3770
sF2.891
S'0.00192009060185'
p3771
sF3.943
S'4.02343276972e-05'
p3772
sF1.06
S'0.144572299664'
p3773
sF2.096
S'0.0180410954724'
p3774
sF1.429
S'0.076502116718'
p3775
sF2.335
S'0.00977171036862'
p3776
sF2.204
S'0.0137621720434'
p3777
sF1.176
S'0.119797438029'
p3778
sF1.135
S'0.128187659189'
p3779
sF2.179
S'0.014665834108'
p3780
sF1.637
S'0.0508152347832'
p3781
sF3.371
S'0.000374479289025'
p3782
sF2.16
S'0.0153863347839'
p3783
sF4.459
S'4.11714605578e-06'
p3784
sF4.303
S'8.42504251255e-06'
p3785
sF4.032
S'2.76520935778e-05'
p3786
sF4.973
S'3.29623305361e-07'
p3787
sF2.221
S'0.0131754806961'
p3788
sF4.869
S'5.60822038932e-07'
p3789
sF2.301
S'0.0106958155398'
p3790
sF1.559
S'0.0594981900808'
p3791
sF2.425
S'0.00765419337737'
p3792
sF1.031
S'0.1512704099'
p3793
sF3.412
S'0.000322440566198'
p3794
sF1.211
S'0.11294770235'
p3795
sF4.689
S'1.37271694341e-06'
p3796
sF4.262
S'1.01302721674e-05'
p3797
sF3.002
S'0.00134106087868'
p3798
sF2.871
S'0.00204587762484'
p3799
sF1.682
S'0.0462844199571'
p3800
sF2.799
S'0.00256305687267'
p3801
sF2.54
S'0.00554262344308'
p3802
sF2.701
S'0.00345656692557'
p3803
sF2.362
S'0.00908832110158'
p3804
sF4.648
S'1.67584456982e-06'
p3805
sF1.901
S'0.0286510063077'
p3806
sF3.379
S'0.000363750040754'
p3807
sF2.031
S'0.021127497301'
p3808
sF3.292
S'0.000497388058613'
p3809
sF2.365
S'0.00901503546548'
p3810
sF1.856
S'0.0317267790282'
p3811
sF3.893
S'4.95060761735e-05'
p3812
sF1.827
S'0.0338498846974'
p3813
sF2.957
S'0.00155324058947'
p3814
sF4.509
S'3.25669544452e-06'
p3815
sF2.429
S'0.00757026616808'
p3816
sF3.232
S'0.000614635280493'
p3817
sF1.596
S'0.0552443966698'
p3818
sF2.832
S'0.00231289243343'
p3819
sF3.538
S'0.000201585029179'
p3820
sF4.058
S'2.47473839529e-05'
p3821
sF3.207
S'0.000670634979208'
p3822
sF3.076
S'0.00104898922553'
p3823
sF4.468
S'3.947715297e-06'
p3824
sF1.719
S'0.0428071859628'
p3825
sF2.745
S'0.00302554488501'
p3826
sF4.878
S'5.35834624879e-07'
p3827
sF3.653
S'0.000129597115644'
p3828
sF4.581
S'2.31378921818e-06'
p3829
sF3.432
S'0.000299573779148'
p3830
sF3.825
S'6.53860432427e-05'
p3831
sF3.322
S'0.000446873469323'
p3832
sF2.971
S'0.00148415890386'
p3833
sF4.427
S'4.77763662239e-06'
p3834
sF3.497
S'0.000235260916148'
p3835
sF1.248
S'0.106015528597'
p3836
sF3.03
S'0.00122276869359'
p3837
sF3.478
S'0.000252584962451'
p3838
sF2.58
S'0.00494001575777'
p3839
sF2.235
S'0.0127086743723'
p3840
sF2.785
S'0.00267638615327'
p3841
sF2.259
S'0.0119416924381'
p3842
sF4.288
S'9.01445467167e-06'
p3843
sF4.677
S'1.45551128771e-06'
p3844
sF3.743
S'9.09181144719e-05'
p3845
sF3.612
S'0.000151922283131'
p3846
sF4.698
S'1.31360716013e-06'
p3847
sF4.361
S'6.47346833068e-06'
p3848
sF1.987
S'0.0234611984229'
p3849
sF3.281
S'0.000517198721187'
p3850
sF3.535
S'0.000203887579225'
p3851
sF1.183
S'0.118404573708'
p3852
sF3.494
S'0.000237920509182'
p3853
sF1.598
S'0.0550214885463'
p3854
sF1.591
S'0.055804787884'
p3855
sF4.247
S'1.08325979777e-05'
p3856
sF1.893
S'0.0291789347334'
p3857
sF4.853
S'6.08038454124e-07'
p3858
sF2.94
S'0.00164106123416'
p3859
sF3.527
S'0.000210148381704'
p3860
sF1.105
S'0.134579794564'
p3861
sF3.645
S'0.000133695900805'
p3862
sF1.407
S'0.0797136943876'
p3863
sF1.4
S'0.0807566592338'
p3864
sF3.35
S'0.000404057801864'
p3865
sF2.947
S'0.00160436601723'
p3866
sF4.279
S'9.38674314769e-06'
p3867
sF2.094
S'0.0181299901251'
p3868
sF1.027
S'0.152210232041'
p3869
sF1.82
S'0.0343795024459'
p3870
sF2.843
S'0.00223455352112'
p3871
sF4.616
S'1.95603472387e-06'
p3872
sF2.865
S'0.00208504621105'
p3873
sF1.462
S'0.0718706049362'
p3874
sF2.786
S'0.00266814358562'
p3875
sF4.771
S'9.1656770254e-07'
p3876
sF1.295
S'0.0976601147413'
p3877
sF2.209
S'0.0135873204524'
p3878
sF3.486
S'0.000245150502419'
p3879
sF1.323
S'0.0929176889156'
p3880
sF4.477
S'3.78496247637e-06'
p3881
sF1.324
S'0.0927515223568'
p3882
sF3.293
S'0.00049562237306'
p3883
sF2.029
S'0.0212291451569'
p3884
sF3.773
S'8.06481439648e-05'
p3885
sF4.529
S'2.9631749514e-06'
p3886
sF1.336
S'0.0907746366522'
p3887
sF3.64
S'0.000136319020446'
p3888
sF1.273
S'0.101509020929'
p3889
sF1.891
S'0.0293121721143'
p3890
sF2.63
S'0.00426924340909'
p3891
sF4.912
S'4.50760265046e-07'
p3892
sF3.647
S'0.000132659962102'
p3893
sF1.58
S'0.0570534332378'
p3894
sF4.03
S'2.78884264406e-05'
p3895
sF4.502
S'3.36584908676e-06'
p3896
sF4.846
S'6.29877577723e-07'
p3897
sF2.299
S'0.0107524696558'
p3898
sF2.168
S'0.015079343269'
p3899
sF4.156
S'1.61933911211e-05'
p3900
sF2.647
S'0.00406046765035'
p3901
sF4.256
S'1.04058352845e-05'
p3902
sF1.12
S'0.131356881043'
p3903
sF1.404
S'0.0801594247833'
p3904
sF4.666
S'1.53559849658e-06'
p3905
sF2.876
S'0.00201374855919'
p3906
sF4.366
S'6.32712395176e-06'
p3907
sF4.891
S'5.0162482287e-07'
p3908
sF2.143
S'0.0160565491847'
p3909
sF4.984
S'3.11415395866e-07'
p3910
sF2.414
S'0.00788923118047'
p3911
sF4.306
S'8.31165278949e-06'
p3912
sF3.01
S'0.00130623844877'
p3913
sF3.719
S'0.000100006525934'
p3914
sF1.638
S'0.0507108468913'
p3915
sF3.019
S'0.00126805265742'
p3916
sF1.541
S'0.0616583929926'
p3917
sF3.924
S'4.35453674864e-05'
p3918
sF2.258
S'0.0119728297174'
p3919
sF3.629
S'0.000142260620397'
p3920
sF1.31
S'0.0950979177952'
p3921
sF4.566
S'2.48559382302e-06'
p3922
sF3.917
S'4.48288744014e-05'
p3923
sF1.764
S'0.0388659895968'
p3924
sF2.835
S'0.00229128428372'
p3925
sF2.704
S'0.00342551445809'
p3926
sF4.976
S'3.24558234676e-07'
p3927
sF3.237
S'0.000603967058777'
p3928
sF2.504
S'0.00613990170975'
p3929
sF2.373
S'0.00882213196112'
p3930
sF1.686
S'0.0458978996797'
p3931
sF2.679
S'0.00369211969304'
p3932
sF3.081
S'0.00103153324413'
p3933
sF2.95
S'0.00158886964736'
p3934
sF2.66
S'0.00390703257485'
p3935
sF4.469
S'3.92930653604e-06'
p3936
sF2.284
S'0.0111857654724'
p3937
sF3.256
S'0.000564968757545'
p3938
sF4.035
S'2.73011487889e-05'
p3939
sF3.125
S'0.000889025299108'
p3940
sF3.765
S'8.3274541113e-05'
p3941
sF4.445
S'4.39459336743e-06'
p3942
sF2.925
S'0.00172228111587'
p3943
sF2.794
S'0.00260302393359'
p3944
sF4.202
S'1.32283566968e-05'
p3945
sF4.855
S'6.019337175e-07'
p3946
sF3.196
S'0.000696735558946'
p3947
sF1.992
S'0.0231855289422'
p3948
sF3.502
S'0.000230889809353'
p3949
sF4.482
S'3.69733718483e-06'
p3950
sF1.932
S'0.0266797529391'
p3951
sF3.171
S'0.000759575715744'
p3952
sF3.04
S'0.0011828907431'
p3953
sF1.315
S'0.0942549512381'
p3954
sF1.954
S'0.0253506085943'
p3955
sF4.278
S'9.42900106046e-06'
p3956
sF3.617
S'0.000149018651906'
p3957
sF1.52
S'0.0642554878189'
p3958
sF2.884
S'0.0019632937666'
p3959
sF4.165
S'1.55676282359e-05'
p3960
sF3.286
S'0.000508105049777'
p3961
sF2.698
S'0.00348787203319'
p3962
sF4.575
S'2.38109993281e-06'
p3963
sF3.461
S'0.000269086406057'
p3964
sF4.985
S'3.09809064549e-07'
p3965
sF1.824
S'0.0340760361195'
p3966
sF4.743
S'1.05288134917e-06'
p3967
sF1.846
S'0.0324461027159'
p3968
sF2.999
S'0.00135433653373'
p3969
sF4.339
S'7.15662613592e-06'
p3970
sF4.124
S'1.86174446246e-05'
p3971
sF1.042
S'0.148705839474'
p3972
sF4.951
S'3.69165518438e-07'
p3973
sF4.534
S'2.89385143708e-06'
p3974
sF3.576
S'0.000174445824992'
p3975
sF2.331
S'0.00987667984102'
p3976
sF4.944
S'3.82678515694e-07'
p3977
sF4.027
S'2.82465162786e-05'
p3978
sF1.975
S'0.0241340740047'
p3979
sF3.245
S'0.00058725311828'
p3980
sF4.191
S'1.38863830071e-05'
p3981
sF2.467
S'0.00681251787906'
p3982
sF3.74
S'9.20101274741e-05'
p3983
sF4.902
S'4.74329182254e-07'
p3984
sF1.53
S'0.063008364464'
p3985
sF2.102
S'0.0177766379021'
p3986
sF4.519
S'3.10661974201e-06'
p3987
sF3.997
S'3.20751505116e-05'
p3988
sF2.748
S'0.0029980004543'
p3989
sF2.149
S'0.0158171999729'
p3990
sF3.483
S'0.000247914182316'
p3991
sF3.268
S'0.00054155182817'
p3992
sF2.389
S'0.00844715118116'
p3993
sF3.059
S'0.00111038574985'
p3994
sF4.831
S'6.79245022459e-07'
p3995
sF4.354
S'6.68378530065e-06'
p3996
sF3.523
S'0.00021334568017'
p3997
sF1.165
S'0.122009496419'
p3998
sF1.009
S'0.156487317093'
p3999
sF1.087
S'0.138518404847'
p4000
s.