(lp1
F1.0468639097854557e-06
aF5.6461129335508969e-06
aF1.1616236711025203e-05
aF1.352226644003348e-05
aF1.6698700340152524e-05
aF1.834249846840138e-05
aF2.0226946337911367e-05
aF2.0569232952733959e-05
aF2.2763539184018175e-05
aF2.3929398702069414e-05
aF2.4428853407336475e-05
aF2.6486628225740235e-05
aF2.7371988054864417e-05
aF3.0148632759504356e-05
aF3.0407244221863414e-05
aF3.0992856146658197e-05
aF3.1356710806463245e-05
aF3.1768622766665824e-05
aF3.288802941505351e-05
aF3.390531601449791e-05
aF3.4139713362966605e-05
aF3.4447123665173958e-05
aF3.6175000180875001e-05
aF3.6607642943693786e-05
aF3.7640823731786542e-05
aF3.8534754495079113e-05
aF3.941476950242795e-05
aF4.1010162318222457e-05
aF4.1824904220969331e-05
aF4.223258328265423e-05
aF4.3636109753543256e-05
aF4.4992958601978787e-05
aF4.7234870670924107e-05
aF4.9168076151516341e-05
aF4.9662049751441444e-05
aF5.0889549322151203e-05
aF5.1146186028907828e-05
aF5.3043925674851346e-05
aF5.4809536859413536e-05
aF5.5474501145548451e-05
aF5.6248347704786175e-05
aF5.6527195233626902e-05
aF5.8469958135509977e-05
aF5.9178951230626285e-05
aF6.0188027397590077e-05
aF6.0933253713881807e-05
aF6.1579767351638937e-05
aF6.230529595015576e-05
aF6.3118163513914405e-05
aF6.4291316814751e-05
aF6.4695188618822414e-05
aF6.5292477653649514e-05
aF6.617214020553066e-05
aF6.7178567349872689e-05
aF6.7599083356429684e-05
aF6.8488459694541465e-05
aF6.9387585173260805e-05
aF6.9740843027310523e-05
aF7.0441385722939942e-05
aF7.0845111333092461e-05
aF7.1422959624600928e-05
aF7.1933648402713334e-05
aF7.2206858207392541e-05
aF7.317858501888007e-05
aF7.3799648713672125e-05
aF7.4416943249639082e-05
aF7.4623524319806573e-05
aF7.5202105658958446e-05
aF7.5937640010023766e-05
aF7.6415793616224609e-05
aF7.6608393215560694e-05
aF7.7636737704281668e-05
aF7.8014073738902492e-05
aF7.8408003889037e-05
aF7.9312204562038006e-05
aF7.9761990221180007e-05
aF8.1738746618059352e-05
aF8.2261872444740588e-05
aF8.2626873564358076e-05
aF8.2736937905928095e-05
aF8.325008325008325e-05
aF8.3589675003343587e-05
aF8.4392458689891477e-05
aF8.5090451149571992e-05
aF8.6001530827248726e-05
aF8.7130024135016686e-05
aF8.737592618481757e-05
aF8.7872690046660398e-05
aF8.9921588374937064e-05
aF9.0167260267796768e-05
aF9.1108701792108173e-05
aF9.1307523739956174e-05
aF9.1944722832633022e-05
aF9.2736849914682091e-05
aF9.323400803677148e-05
aF9.3856174797739939e-05
aF9.4386816049534195e-05
aF9.5011876484560565e-05
aF9.5573056044040056e-05
aF9.5823990494260146e-05
aF9.6097481285015515e-05
aF9.6385542168674694e-05
aF9.6634229776871572e-05
aF9.7243156512860402e-05
aF9.7537186052182393e-05
aF9.8704016266421894e-05
aF9.8953076451146872e-05
aF0.00010004251807017983
aF0.00010068942046190264
aF0.00010089188425683038
aF0.00010215224566389256
aF0.00010234293685338453
aF0.00010324371090934996
aF0.00010405361674763772
aF0.00010483125313183369
aF0.00010486786125143014
aF0.00010573350504454553
aF0.00010596295958784647
aF0.00010614697109617977
aF0.00010734946652682609
aF0.00010762872395384879
aF0.00010772240367462663
aF0.00010885858507788288
aF0.00010911634311852325
aF0.00010990085843560523
a.